(dp1
S'output'
p2
S"<type 'exceptions.NameError'> name 'db' is not defined"
p3
sS'layer'
p4
S'C:\\web2py\\applications\\ascli\\models\\Temporales.py'
p5
sS'code'
p6
S"# -*- coding: utf-8 -*-\ndb.define_table('tbtmp_linea_venta',\t\n\tdb.Field('IdVenta', type='double', label=T(u'IdVenta'),comment='xxx'),\n\tdb.Field('IdProducto', type='double', label=T(u'IdProducto'),comment='xxx'),\n\tdb.Field('NombreProducto', type='text', label=T(u'NombreProducto'),comment='xxx'),\n\tdb.Field('IdUbicacion', type='text', length=2, label=T(u'IdUbicacion'),comment='xxx'),\n\tdb.Field('NombreUbicaci\xc3\xb3n', type='text', label=T(u'NombreUbicaci\xc3\xb3n'),comment='xxx'),\n\tdb.Field('Cantidad', type='double', label=T(u'Cantidad'),comment='xxx'),\n\tdb.Field('ValorTotalProducto', type='double', label=T(u'ValorTotalProducto'),comment='xxx'),\n\tdb.Field('ValorIva', type='double', label=T(u'ValorIva'),comment='xxx'),\n\tdb.Field('PorcentajeDescuento', type='double', label=T(u'PorcentajeDescuento'),comment='xxx')\n\t)\n"
p7
sS'snapshot'
p8
(dp9
S'exception'
p10
(dp11
S'__hash__'
p12
S"<method-wrapper '__hash__' of exceptions.NameError object>"
p13
sS'__setattr__'
p14
S"<method-wrapper '__setattr__' of exceptions.NameError object>"
p15
sS'__reduce_ex__'
p16
S'<built-in method __reduce_ex__ of exceptions.NameError object>'
p17
sS'__getslice__'
p18
S"<method-wrapper '__getslice__' of exceptions.NameError object>"
p19
sS'__getitem__'
p20
S"<method-wrapper '__getitem__' of exceptions.NameError object>"
p21
sS'__setstate__'
p22
S'<built-in method __setstate__ of exceptions.NameError object>'
p23
sS'__reduce__'
p24
S'<built-in method __reduce__ of exceptions.NameError object>'
p25
sS'__str__'
p26
S"<method-wrapper '__str__' of exceptions.NameError object>"
p27
sS'__format__'
p28
S'<built-in method __format__ of exceptions.NameError object>'
p29
sS'__getattribute__'
p30
S"<method-wrapper '__getattribute__' of exceptions.NameError object>"
p31
sS'__class__'
p32
S"<type 'exceptions.NameError'>"
p33
sS'__unicode__'
p34
S'<built-in method __unicode__ of exceptions.NameError object>'
p35
sS'__delattr__'
p36
S"<method-wrapper '__delattr__' of exceptions.NameError object>"
p37
sS'__subclasshook__'
p38
S'<built-in method __subclasshook__ of type object>'
p39
sS'__repr__'
p40
S"<method-wrapper '__repr__' of exceptions.NameError object>"
p41
sS'args'
p42
S'("name \'db\' is not defined",)'
p43
sS'__dict__'
p44
S'{}'
p45
sS'__sizeof__'
p46
S'<built-in method __sizeof__ of exceptions.NameError object>'
p47
sS'__doc__'
p48
S"'Name not found globally.'"
p49
sS'__init__'
p50
S"<method-wrapper '__init__' of exceptions.NameError object>"
p51
sS'__new__'
p52
S'<built-in method __new__ of type object>'
p53
ssS'evalue'
p54
S"name 'db' is not defined"
p55
sS'request'
p56
cgluon.html
XML_unpickle
p57
(S's\xdb^\x00\x00<div><table><tr><td style="font-weight:bold;vertical-align:top;">ajax</td><td style="vertical-align:top;">:</td><td><div>True</div></td></tr><tr><td style="font-weight:bold;vertical-align:top;">application</td><td style="vertical-align:top;">:</td><td><div>ascli</div></td></tr><tr><td style="font-weight:bold;vertical-align:top;">args</td><td style="vertical-align:top;">:</td><td><div><table></table></div></td></tr><tr><td style="font-weight:bold;vertical-align:top;">cid</td><td style="vertical-align:top;">:</td><td><div>c320917415635</div></td></tr><tr><td style="font-weight:bold;vertical-align:top;">client</td><td style="vertical-align:top;">:</td><td><div>127.0.0.1</div></td></tr><tr><td style="font-weight:bold;vertical-align:top;">controller</td><td style="vertical-align:top;">:</td><td><div>appadmin</div></td></tr><tr><td style="font-weight:bold;vertical-align:top;">cookies</td><td style="vertical-align:top;">:</td><td><div><table><tr><td style="font-weight:bold;vertical-align:top;">session_id_admin</td><td style="vertical-align:top;">:</td><td><div>127.0.0.1-5e228cff-4bd9-4cbb-80e9-92d3f3177566<table><tr><td style="font-weight:bold;vertical-align:top;">comment</td><td style="vertical-align:top;">:</td><td><div></div></td></tr><tr><td style="font-weight:bold;vertical-align:top;">domain</td><td style="vertical-align:top;">:</td><td><div></div></td></tr><tr><td style="font-weight:bold;vertical-align:top;">expires</td><td style="vertical-align:top;">:</td><td><div></div></td></tr><tr><td style="font-weight:bold;vertical-align:top;">httponly</td><td style="vertical-align:top;">:</td><td><div></div></td></tr><tr><td style="font-weight:bold;vertical-align:top;">max-age</td><td style="vertical-align:top;">:</td><td><div></div></td></tr><tr><td style="font-weight:bold;vertical-align:top;">path</td><td style="vertical-align:top;">:</td><td><div></div></td></tr><tr><td style="font-weight:bold;vertical-align:top;">secure</td><td style="vertical-align:top;">:</td><td><div></div></td></tr><tr><td style="font-weight:bold;vertical-align:top;">version</td><td style="vertical-align:top;">:</td><td><div></div></td></tr></table></div></td></tr><tr><td style="font-weight:bold;vertical-align:top;">session_id_ascli</td><td style="vertical-align:top;">:</td><td><div>127.0.0.1-cb1e989d-1bd8-43a3-9b32-c5bfe1c01a13<table><tr><td style="font-weight:bold;vertical-align:top;">comment</td><td style="vertical-align:top;">:</td><td><div></div></td></tr><tr><td style="font-weight:bold;vertical-align:top;">domain</td><td style="vertical-align:top;">:</td><td><div></div></td></tr><tr><td style="font-weight:bold;vertical-align:top;">expires</td><td style="vertical-align:top;">:</td><td><div></div></td></tr><tr><td style="font-weight:bold;vertical-align:top;">httponly</td><td style="vertical-align:top;">:</td><td><div></div></td></tr><tr><td style="font-weight:bold;vertical-align:top;">max-age</td><td style="vertical-align:top;">:</td><td><div></div></td></tr><tr><td style="font-weight:bold;vertical-align:top;">path</td><td style="vertical-align:top;">:</td><td><div></div></td></tr><tr><td style="font-weight:bold;vertical-align:top;">secure</td><td style="vertical-align:top;">:</td><td><div></div></td></tr><tr><td style="font-weight:bold;vertical-align:top;">version</td><td style="vertical-align:top;">:</td><td><div></div></td></tr></table></div></td></tr><tr><td style="font-weight:bold;vertical-align:top;">session_id_welcome</td><td style="vertical-align:top;">:</td><td><div>127.0.0.1-4112b93e-84be-4ef1-9f45-1fc433e53e7d<table><tr><td style="font-weight:bold;vertical-align:top;">comment</td><td style="vertical-align:top;">:</td><td><div></div></td></tr><tr><td style="font-weight:bold;vertical-align:top;">domain</td><td style="vertical-align:top;">:</td><td><div></div></td></tr><tr><td style="font-weight:bold;vertical-align:top;">expires</td><td style="vertical-align:top;">:</td><td><div></div></td></tr><tr><td style="font-weight:bold;vertical-align:top;">httponly</td><td style="vertical-align:top;">:</td><td><div></div></td></tr><tr><td style="font-weight:bold;vertical-align:top;">max-age</td><td style="vertical-align:top;">:</td><td><div></div></td></tr><tr><td style="font-weight:bold;vertical-align:top;">path</td><td style="vertical-align:top;">:</td><td><div></div></td></tr><tr><td style="font-weight:bold;vertical-align:top;">secure</td><td style="vertical-align:top;">:</td><td><div></div></td></tr><tr><td style="font-weight:bold;vertical-align:top;">version</td><td style="vertical-align:top;">:</td><td><div></div></td></tr></table></div></td></tr></table></div></td></tr><tr><td style="font-weight:bold;vertical-align:top;">env</td><td style="vertical-align:top;">:</td><td><div><table><tr><td style="font-weight:bold;vertical-align:top;">HTTP_ACCEPT</td><td style="vertical-align:top;">:</td><td><div>*/*</div></td></tr><tr><td style="font-weight:bold;vertical-align:top;">HTTP_ACCEPT_ENCODING</td><td style="vertical-align:top;">:</td><td><div>gzip, deflate</div></td></tr><tr><td style="font-weight:bold;vertical-align:top;">HTTP_ACCEPT_LANGUAGE</td><td style="vertical-align:top;">:</td><td><div>es-CO</div></td></tr><tr><td style="font-weight:bold;vertical-align:top;">HTTP_CONNECTION</td><td style="vertical-align:top;">:</td><td><div>Keep-Alive</div></td></tr><tr><td style="font-weight:bold;vertical-align:top;">HTTP_COOKIE</td><td style="vertical-align:top;">:</td><td><div>session_id_welcome=127.0.0.1-4112b93e-84be-4ef1-9f45-1fc433e53e7d; session_id_admin=127.0.0.1-5e228cff-4bd9-4cbb-80e9-92d3f3177566; session_id_ascli=127.0.0.1-cb1e989d-1bd8-43a3-9b32-c5bfe1c01a13</div></td></tr><tr><td style="font-weight:bold;vertical-align:top;">HTTP_HOST</td><td style="vertical-align:top;">:</td><td><div>127.0.0.1:8000</div></td></tr><tr><td style="font-weight:bold;vertical-align:top;">HTTP_REFERER</td><td style="vertical-align:top;">:</td><td><div>http://127.0.0.1:8000/admin/default/edit/ascli/controllers/person.py?id=controllers__person__py</div></td></tr><tr><td style="font-weight:bold;vertical-align:top;">HTTP_USER_AGENT</td><td style="vertical-align:top;">:</td><td><div>Mozilla/5.0 (Windows NT 10.0; Win64; x64) AppleWebKit/537.36 (KHTML, like Gecko) Chrome/51.0.2704.79 Safari/537.36 Edge/14.14393</div></td></tr><tr><td style="font-weight:bold;vertical-align:top;">HTTP_WEB2PY_COMPONENT_ELEMENT</td><td style="vertical-align:top;">:</td><td><div>c320917415635</div></td></tr><tr><td style="font-weight:bold;vertical-align:top;">HTTP_WEB2PY_COMPONENT_LOCATION</td><td style="vertical-align:top;">:</td><td><div>http://127.0.0.1:8000/admin/default/edit/ascli/controllers/person.py?id=controllers__person__py</div></td></tr><tr><td style="font-weight:bold;vertical-align:top;">HTTP_X_REQUESTED_WITH</td><td style="vertical-align:top;">:</td><td><div>XMLHttpRequest</div></td></tr><tr><td style="font-weight:bold;vertical-align:top;">PATH_INFO</td><td style="vertical-align:top;">:</td><td><div>/ascli/appadmin/hooks</div></td></tr><tr><td style="font-weight:bold;vertical-align:top;">QUERY_STRING</td><td style="vertical-align:top;">:</td><td><div></div></td></tr><tr><td style="font-weight:bold;vertical-align:top;">REMOTE_ADDR</td><td style="vertical-align:top;">:</td><td><div>127.0.0.1</div></td></tr><tr><td style="font-weight:bold;vertical-align:top;">REMOTE_PORT</td><td style="vertical-align:top;">:</td><td><div>50944</div></td></tr><tr><td style="font-weight:bold;vertical-align:top;">REQUEST_METHOD</td><td style="vertical-align:top;">:</td><td><div>GET</div></td></tr><tr><td style="font-weight:bold;vertical-align:top;">SCRIPT_NAME</td><td style="vertical-align:top;">:</td><td><div></div></td></tr><tr><td style="font-weight:bold;vertical-align:top;">SERVER_NAME</td><td style="vertical-align:top;">:</td><td><div>PCLUCHO</div></td></tr><tr><td style="font-weight:bold;vertical-align:top;">SERVER_PORT</td><td style="vertical-align:top;">:</td><td><div>8000</div></td></tr><tr><td style="font-weight:bold;vertical-align:top;">SERVER_PROTOCOL</td><td style="vertical-align:top;">:</td><td><div>HTTP/1.1</div></td></tr><tr><td style="font-weight:bold;vertical-align:top;">SERVER_SOFTWARE</td><td style="vertical-align:top;">:</td><td><div>Rocket 1.2.6</div></td></tr><tr><td style="font-weight:bold;vertical-align:top;">app_folders</td><td style="vertical-align:top;">:</td><td><div>set([&#x27;C:\\\\web2py\\\\applications\\\\ascli\\\\&#x27;, &#x27;C:\\\\web2py\\\\applications\\\\admin\\\\&#x27;, &#x27;C:\\\\web2py\\\\applications\\\\welcome\\\\&#x27;])</div></td></tr><tr><td style="font-weight:bold;vertical-align:top;">applications_parent</td><td style="vertical-align:top;">:</td><td><div>C:\\web2py</div></td></tr><tr><td style="font-weight:bold;vertical-align:top;">cmd_args</td><td style="vertical-align:top;">:</td><td><div><table></table></div></td></tr><tr><td style="font-weight:bold;vertical-align:top;">cmd_options</td><td style="vertical-align:top;">:</td><td><div>&lt;Values at 0x3012120: {&#x27;verbose&#x27;: False, &#x27;ip&#x27;: &#x27;127.0.0.1&#x27;, &#x27;debuglevel&#x27;: 30, &#x27;with_scheduler&#x27;: False, &#x27;shutdown_timeout&#x27;: 5, &#x27;taskbar&#x27;: False, &#x27;with_coverage&#x27;: False, &#x27;pid_filename&#x27;: &#x27;httpserver.pid&#x27;, &#x27;maxthreads&#x27;: None, &#x27;softcron&#x27;: False, &#x27;server_name&#x27;: &#x27;PCLUCHO&#x27;, &#x27;bpython&#x27;: False, &#x27;nogui&#x27;: False, &#x27;port&#x27;: 8000, &#x27;print_errors&#x27;: False, &#x27;extcron&#x27;: False, &#x27;runcron&#x27;: False, &#x27;run_system_tests&#x27;: False, &#x27;test&#x27;: None, &#x27;folder&#x27;: &#x27;C:\\\\web2py&#x27;, &#x27;config&#x27;: &#x27;&#x27;, &#x27;minthreads&#x27;: None, &#x27;shell&#x27;: None, &#x27;run&#x27;: &#x27;&#x27;, &#x27;log_filename&#x27;: &#x27;httpserver.log&#x27;, &#x27;profiler_dir&#x27;: None, &#x27;args&#x27;: [&#x27;&#x27;], &#x27;socket_timeout&#x27;: 5, &#x27;ssl_ca_certificate&#x27;: None, &#x27;scheduler&#x27;: None, &#x27;interfaces&#x27;: None, &#x27;ssl_private_key&#x27;: &#x27;&#x27;, &#x27;gae&#x27;: None, &#x27;password&#x27;: &#x27;******&#x27;, &#x27;request_queue_size&#x27;: 5, &#x27;ssl_certificate&#x27;: &#x27;&#x27;, &#x27;cronjob&#x27;: False, &#x27;numthreads&#x27;: None, &#x27;quiet&#x27;: False, &#x27;import_models&#x27;: False, &#x27;timeout&#x27;: 10, &#x27;plain&#x27;: False, &#x27;nobanner&#x27;: False}&gt;</div></td></tr><tr><td style="font-weight:bold;vertical-align:top;">db_sessions</td><td style="vertical-align:top;">:</td><td><div>set([])</div></td></tr><tr><td style="font-weight:bold;vertical-align:top;">debugging</td><td style="vertical-align:top;">:</td><td><div>True</div></td></tr><tr><td style="font-weight:bold;vertical-align:top;">gluon_parent</td><td style="vertical-align:top;">:</td><td><div>C:\\web2py</div></td></tr><tr><td style="font-weight:bold;vertical-align:top;">http_accept</td><td style="vertical-align:top;">:</td><td><div>*/*</div></td></tr><tr><td style="font-weight:bold;vertical-align:top;">http_accept_encoding</td><td style="vertical-align:top;">:</td><td><div>gzip, deflate</div></td></tr><tr><td style="font-weight:bold;vertical-align:top;">http_accept_language</td><td style="vertical-align:top;">:</td><td><div>es-CO</div></td></tr><tr><td style="font-weight:bold;vertical-align:top;">http_connection</td><td style="vertical-align:top;">:</td><td><div>Keep-Alive</div></td></tr><tr><td style="font-weight:bold;vertical-align:top;">http_cookie</td><td style="vertical-align:top;">:</td><td><div>session_id_welcome=127.0.0.1-4112b93e-84be-4ef1-9f45-1fc433e53e7d; session_id_admin=127.0.0.1-5e228cff-4bd9-4cbb-80e9-92d3f3177566; session_id_ascli=127.0.0.1-cb1e989d-1bd8-43a3-9b32-c5bfe1c01a13</div></td></tr><tr><td style="font-weight:bold;vertical-align:top;">http_host</td><td style="vertical-align:top;">:</td><td><div>127.0.0.1:8000</div></td></tr><tr><td style="font-weight:bold;vertical-align:top;">http_referer</td><td style="vertical-align:top;">:</td><td><div>http://127.0.0.1:8000/admin/default/edit/ascli/controllers/person.py?id=controllers__person__py</div></td></tr><tr><td style="font-weight:bold;vertical-align:top;">http_user_agent</td><td style="vertical-align:top;">:</td><td><div>Mozilla/5.0 (Windows NT 10.0; Win64; x64) AppleWebKit/537.36 (KHTML, like Gecko) Chrome/51.0.2704.79 Safari/537.36 Edge/14.14393</div></td></tr><tr><td style="font-weight:bold;vertical-align:top;">http_web2py_component_element</td><td style="vertical-align:top;">:</td><td><div>c320917415635</div></td></tr><tr><td style="font-weight:bold;vertical-align:top;">http_web2py_component_location</td><td style="vertical-align:top;">:</td><td><div>http://127.0.0.1:8000/admin/default/edit/ascli/controllers/person.py?id=controllers__person__py</div></td></tr><tr><td style="font-weight:bold;vertical-align:top;">http_x_requested_with</td><td style="vertical-align:top;">:</td><td><div>XMLHttpRequest</div></td></tr><tr><td style="font-weight:bold;vertical-align:top;">is_jython</td><td style="vertical-align:top;">:</td><td><div>False</div></td></tr><tr><td style="font-weight:bold;vertical-align:top;">is_pypy</td><td style="vertical-align:top;">:</td><td><div>False</div></td></tr><tr><td style="font-weight:bold;vertical-align:top;">is_source</td><td style="vertical-align:top;">:</td><td><div>False</div></td></tr><tr><td style="font-weight:bold;vertical-align:top;">local_hosts</td><td style="vertical-align:top;">:</td><td><div><table><tr><td><div>2001:0:9d38:90d7:1ce0:1a45:45a9:78e5</div></td></tr><tr><td><div>fe80::1ce0:1a45:45a9:78e5%11</div></td></tr><tr><td><div>fe80::ac57:9320:9586:f872%3</div></td></tr><tr><td><div>::ffff:127.0.0.1</div></td></tr><tr><td><div>::1</div></td></tr><tr><td><div>192.168.0.20</div></td></tr><tr><td><div>PCLUCHO</div></td></tr><tr><td><div>127.0.0.1</div></td></tr></table></div></td></tr><tr><td style="font-weight:bold;vertical-align:top;">path_info</td><td style="vertical-align:top;">:</td><td><div>/ascli/appadmin/hooks</div></td></tr><tr><td style="font-weight:bold;vertical-align:top;">query_string</td><td style="vertical-align:top;">:</td><td><div></div></td></tr><tr><td style="font-weight:bold;vertical-align:top;">remote_addr</td><td style="vertical-align:top;">:</td><td><div>127.0.0.1</div></td></tr><tr><td style="font-weight:bold;vertical-align:top;">remote_port</td><td style="vertical-align:top;">:</td><td><div>50944</div></td></tr><tr><td style="font-weight:bold;vertical-align:top;">request_method</td><td style="vertical-align:top;">:</td><td><div>GET</div></td></tr><tr><td style="font-weight:bold;vertical-align:top;">request_uri</td><td style="vertical-align:top;">:</td><td><div>/ascli/appadmin/hooks</div></td></tr><tr><td style="font-weight:bold;vertical-align:top;">script_name</td><td style="vertical-align:top;">:</td><td><div></div></td></tr><tr><td style="font-weight:bold;vertical-align:top;">server_name</td><td style="vertical-align:top;">:</td><td><div>PCLUCHO</div></td></tr><tr><td style="font-weight:bold;vertical-align:top;">server_port</td><td style="vertical-align:top;">:</td><td><div>8000</div></td></tr><tr><td style="font-weight:bold;vertical-align:top;">server_protocol</td><td style="vertical-align:top;">:</td><td><div>HTTP/1.1</div></td></tr><tr><td style="font-weight:bold;vertical-align:top;">server_software</td><td style="vertical-align:top;">:</td><td><div>Rocket 1.2.6</div></td></tr><tr><td style="font-weight:bold;vertical-align:top;">web2py_path</td><td style="vertical-align:top;">:</td><td><div>C:\\web2py</div></td></tr><tr><td style="font-weight:bold;vertical-align:top;">web2py_version</td><td style="vertical-align:top;">:</td><td><div>2.14.6-stable+timestamp.2016.05.10.00.21.47</div></td></tr><tr><td style="font-weight:bold;vertical-align:top;">wsgi.errors</td><td style="vertical-align:top;">:</td><td><div>&lt;open file &#x27;&lt;stderr&gt;&#x27;, mode &#x27;w&#x27; at 0x021AD0D0&gt;</div></td></tr><tr><td style="font-weight:bold;vertical-align:top;">wsgi.file_wrapper</td><td style="vertical-align:top;">:</td><td><div>&lt;class wsgiref.util.FileWrapper at 0x02F345A8&gt;</div></td></tr><tr><td style="font-weight:bold;vertical-align:top;">wsgi.input</td><td style="vertical-align:top;">:</td><td><div>&lt;socket._fileobject object at 0x03E731F0&gt;</div></td></tr><tr><td style="font-weight:bold;vertical-align:top;">wsgi.multiprocess</td><td style="vertical-align:top;">:</td><td><div>False</div></td></tr><tr><td style="font-weight:bold;vertical-align:top;">wsgi.multithread</td><td style="vertical-align:top;">:</td><td><div>True</div></td></tr><tr><td style="font-weight:bold;vertical-align:top;">wsgi.run_once</td><td style="vertical-align:top;">:</td><td><div>False</div></td></tr><tr><td style="font-weight:bold;vertical-align:top;">wsgi.url_scheme</td><td style="vertical-align:top;">:</td><td><div>http</div></td></tr><tr><td style="font-weight:bold;vertical-align:top;">wsgi.version</td><td style="vertical-align:top;">:</td><td><div><table><tr><td><div>1</div></td></tr><tr><td><div>0</div></td></tr></table></div></td></tr><tr><td style="font-weight:bold;vertical-align:top;">wsgi_errors</td><td style="vertical-align:top;">:</td><td><div>&lt;open file &#x27;&lt;stderr&gt;&#x27;, mode &#x27;w&#x27; at 0x021AD0D0&gt;</div></td></tr><tr><td style="font-weight:bold;vertical-align:top;">wsgi_file_wrapper</td><td style="vertical-align:top;">:</td><td><div>&lt;class wsgiref.util.FileWrapper at 0x02F345A8&gt;</div></td></tr><tr><td style="font-weight:bold;vertical-align:top;">wsgi_input</td><td style="vertical-align:top;">:</td><td><div>&lt;socket._fileobject object at 0x03E731F0&gt;</div></td></tr><tr><td style="font-weight:bold;vertical-align:top;">wsgi_multiprocess</td><td style="vertical-align:top;">:</td><td><div>False</div></td></tr><tr><td style="font-weight:bold;vertical-align:top;">wsgi_multithread</td><td style="vertical-align:top;">:</td><td><div>True</div></td></tr><tr><td style="font-weight:bold;vertical-align:top;">wsgi_run_once</td><td style="vertical-align:top;">:</td><td><div>False</div></td></tr><tr><td style="font-weight:bold;vertical-align:top;">wsgi_url_scheme</td><td style="vertical-align:top;">:</td><td><div>http</div></td></tr><tr><td style="font-weight:bold;vertical-align:top;">wsgi_version</td><td style="vertical-align:top;">:</td><td><div><table><tr><td><div>1</div></td></tr><tr><td><div>0</div></td></tr></table></div></td></tr></table></div></td></tr><tr><td style="font-weight:bold;vertical-align:top;">extension</td><td style="vertical-align:top;">:</td><td><div>html</div></td></tr><tr><td style="font-weight:bold;vertical-align:top;">folder</td><td style="vertical-align:top;">:</td><td><div>C:\\web2py\\applications\\ascli\\</div></td></tr><tr><td style="font-weight:bold;vertical-align:top;">function</td><td style="vertical-align:top;">:</td><td><div>hooks</div></td></tr><tr><td style="font-weight:bold;vertical-align:top;">global_settings</td><td style="vertical-align:top;">:</td><td><div><table><tr><td style="font-weight:bold;vertical-align:top;">app_folders</td><td style="vertical-align:top;">:</td><td><div>set([&#x27;C:\\\\web2py\\\\applications\\\\ascli\\\\&#x27;, &#x27;C:\\\\web2py\\\\applications\\\\admin\\\\&#x27;, &#x27;C:\\\\web2py\\\\applications\\\\welcome\\\\&#x27;])</div></td></tr><tr><td style="font-weight:bold;vertical-align:top;">applications_parent</td><td style="vertical-align:top;">:</td><td><div>C:\\web2py</div></td></tr><tr><td style="font-weight:bold;vertical-align:top;">cmd_args</td><td style="vertical-align:top;">:</td><td><div><table></table></div></td></tr><tr><td style="font-weight:bold;vertical-align:top;">cmd_options</td><td style="vertical-align:top;">:</td><td><div>&lt;Values at 0x3012120: {&#x27;verbose&#x27;: False, &#x27;ip&#x27;: &#x27;127.0.0.1&#x27;, &#x27;debuglevel&#x27;: 30, &#x27;with_scheduler&#x27;: False, &#x27;shutdown_timeout&#x27;: 5, &#x27;taskbar&#x27;: False, &#x27;with_coverage&#x27;: False, &#x27;pid_filename&#x27;: &#x27;httpserver.pid&#x27;, &#x27;maxthreads&#x27;: None, &#x27;softcron&#x27;: False, &#x27;server_name&#x27;: &#x27;PCLUCHO&#x27;, &#x27;bpython&#x27;: False, &#x27;nogui&#x27;: False, &#x27;port&#x27;: 8000, &#x27;print_errors&#x27;: False, &#x27;extcron&#x27;: False, &#x27;runcron&#x27;: False, &#x27;run_system_tests&#x27;: False, &#x27;test&#x27;: None, &#x27;folder&#x27;: &#x27;C:\\\\web2py&#x27;, &#x27;config&#x27;: &#x27;&#x27;, &#x27;minthreads&#x27;: None, &#x27;shell&#x27;: None, &#x27;run&#x27;: &#x27;&#x27;, &#x27;log_filename&#x27;: &#x27;httpserver.log&#x27;, &#x27;profiler_dir&#x27;: None, &#x27;args&#x27;: [&#x27;&#x27;], &#x27;socket_timeout&#x27;: 5, &#x27;ssl_ca_certificate&#x27;: None, &#x27;scheduler&#x27;: None, &#x27;interfaces&#x27;: None, &#x27;ssl_private_key&#x27;: &#x27;&#x27;, &#x27;gae&#x27;: None, &#x27;password&#x27;: &#x27;******&#x27;, &#x27;request_queue_size&#x27;: 5, &#x27;ssl_certificate&#x27;: &#x27;&#x27;, &#x27;cronjob&#x27;: False, &#x27;numthreads&#x27;: None, &#x27;quiet&#x27;: False, &#x27;import_models&#x27;: False, &#x27;timeout&#x27;: 10, &#x27;plain&#x27;: False, &#x27;nobanner&#x27;: False}&gt;</div></td></tr><tr><td style="font-weight:bold;vertical-align:top;">db_sessions</td><td style="vertical-align:top;">:</td><td><div>set([])</div></td></tr><tr><td style="font-weight:bold;vertical-align:top;">debugging</td><td style="vertical-align:top;">:</td><td><div>True</div></td></tr><tr><td style="font-weight:bold;vertical-align:top;">gluon_parent</td><td style="vertical-align:top;">:</td><td><div>C:\\web2py</div></td></tr><tr><td style="font-weight:bold;vertical-align:top;">is_jython</td><td style="vertical-align:top;">:</td><td><div>False</div></td></tr><tr><td style="font-weight:bold;vertical-align:top;">is_pypy</td><td style="vertical-align:top;">:</td><td><div>False</div></td></tr><tr><td style="font-weight:bold;vertical-align:top;">is_source</td><td style="vertical-align:top;">:</td><td><div>False</div></td></tr><tr><td style="font-weight:bold;vertical-align:top;">local_hosts</td><td style="vertical-align:top;">:</td><td><div><table><tr><td><div>2001:0:9d38:90d7:1ce0:1a45:45a9:78e5</div></td></tr><tr><td><div>fe80::1ce0:1a45:45a9:78e5%11</div></td></tr><tr><td><div>fe80::ac57:9320:9586:f872%3</div></td></tr><tr><td><div>::ffff:127.0.0.1</div></td></tr><tr><td><div>::1</div></td></tr><tr><td><div>192.168.0.20</div></td></tr><tr><td><div>PCLUCHO</div></td></tr><tr><td><div>127.0.0.1</div></td></tr></table></div></td></tr><tr><td style="font-weight:bold;vertical-align:top;">web2py_version</td><td style="vertical-align:top;">:</td><td><div>2.14.6-stable+timestamp.2016.05.10.00.21.47</div></td></tr></table></div></td></tr><tr><td style="font-weight:bold;vertical-align:top;">is_https</td><td style="vertical-align:top;">:</td><td><div>False</div></td></tr><tr><td style="font-weight:bold;vertical-align:top;">is_local</td><td style="vertical-align:top;">:</td><td><div>True</div></td></tr><tr><td style="font-weight:bold;vertical-align:top;">is_restful</td><td style="vertical-align:top;">:</td><td><div>False</div></td></tr><tr><td style="font-weight:bold;vertical-align:top;">is_scheduler</td><td style="vertical-align:top;">:</td><td><div>False</div></td></tr><tr><td style="font-weight:bold;vertical-align:top;">is_shell</td><td style="vertical-align:top;">:</td><td><div>False</div></td></tr><tr><td style="font-weight:bold;vertical-align:top;">now</td><td style="vertical-align:top;">:</td><td><div>datetime.datetime(2016, 8, 27, 9, 3, 45, 538000)</div></td></tr><tr><td style="font-weight:bold;vertical-align:top;">raw_args</td><td style="vertical-align:top;">:</td><td><div></div></td></tr><tr><td style="font-weight:bold;vertical-align:top;">raw_extension</td><td style="vertical-align:top;">:</td><td><div>None</div></td></tr><tr><td style="font-weight:bold;vertical-align:top;">url</td><td style="vertical-align:top;">:</td><td><div>/ascli/appadmin/hooks</div></td></tr><tr><td style="font-weight:bold;vertical-align:top;">utcnow</td><td style="vertical-align:top;">:</td><td><div>datetime.datetime(2016, 8, 27, 14, 3, 45, 538000)</div></td></tr><tr><td style="font-weight:bold;vertical-align:top;">wsgi</td><td style="vertical-align:top;">:</td><td><div>&lt;gluon.main.LazyWSGI object at 0x03E5CBD0&gt;</div></td></tr></table></div>'
tRp58
sS'frames'
p59
(lp60
(dp61
S'file'
p62
S'C:\\web2py\\gluon\\restricted.py'
p63
sS'dump'
p64
(dp65
S'environment'
p66
S"{'A': <class 'gluon.html.A'>, 'ANY_OF': <class 'gluon.validators.ANY_OF'>, 'ASSIGNJS': <function ASSIGNJS>, 'B': <class 'gluon.html.B'>, 'BEAUTIFY': <class 'gluon.html.BEAUTIFY'>, 'BODY': <class 'gluon.html.BODY'>, 'BR': <class 'gluon.html.BR'>, 'BUTTON': <class 'gluon.html.BUTTON'>, 'CAT': <class 'gluon.html.CAT'>, 'CENTER': <class 'gluon.html.CENTER'>, ...}"
p67
sS'ccode'
p68
S'<code object <module> at 03E82530, file "C:\\web2py\\applications\\ascli\\models\\Temporales.py", line 2>'
p69
ssS'lnum'
p70
I227
sS'lines'
p71
(dp72
I224
S'            ccode = code'
p73
sI225
S'        else:'
p74
sI226
S'            ccode = compile2(code, layer)'
p75
sI227
S'        exec ccode in environment'
p76
sI228
S'    except HTTP:'
p77
sI229
S'        raise'
p78
sI230
S'    except RestrictedError:'
p79
sI231
S'        # do not encapsulate (obfuscate) the original RestrictedError'
p80
sI222
S'    try:'
p81
sI223
S'        if isinstance(code, types.CodeType):'
p82
ssS'call'
p83
S'(code="# -*- coding: utf-8 -*-\\ndb.define_table(\'tbtmp_l...abel=T(u\'PorcentajeDescuento\'),comment=\'xxx\')\\n\\t)\\n", environment={\'A\': <class \'gluon.html.A\'>, \'ANY_OF\': <class \'gluon.validators.ANY_OF\'>, \'ASSIGNJS\': <function ASSIGNJS>, \'B\': <class \'gluon.html.B\'>, \'BEAUTIFY\': <class \'gluon.html.BEAUTIFY\'>, \'BODY\': <class \'gluon.html.BODY\'>, \'BR\': <class \'gluon.html.BR\'>, \'BUTTON\': <class \'gluon.html.BUTTON\'>, \'CAT\': <class \'gluon.html.CAT\'>, \'CENTER\': <class \'gluon.html.CENTER\'>, ...}, layer=r\'C:\\web2py\\applications\\ascli\\models\\Temporales.py\')'
p84
sS'func'
p85
S'restricted'
p86
sa(dp87
g62
S'C:\\web2py\\applications\\ascli\\models\\Temporales.py'
p88
sg64
(dp89
S'comment'
p90
S'undefined'
p91
sS'builtintype'
p92
S"<type 'type'>"
p93
sS'db'
p94
g91
sS'label'
p95
g91
sS'length'
p96
g91
sS'T'
S'<gluon.languages.translator object>'
p97
ssg70
I2
sg71
(dp98
I2
S"db.define_table('tbtmp_linea_venta',"
p99
sI3
S"\tdb.Field('IdVenta', type='double', label=T(u'IdVenta'),comment='xxx'),"
p100
sI4
S"\tdb.Field('IdProducto', type='double', label=T(u'IdProducto'),comment='xxx'),"
p101
sI5
S"\tdb.Field('NombreProducto', type='text', label=T(u'NombreProducto'),comment='xxx'),"
p102
sI6
S"\tdb.Field('IdUbicacion', type='text', length=2, label=T(u'IdUbicacion'),comment='xxx'),"
p103
sI7
S"\tdb.Field('NombreUbicaci\xc3\xb3n', type='text', label=T(u'NombreUbicaci\xc3\xb3n'),comment='xxx'),"
p104
sI8
S"\tdb.Field('Cantidad', type='double', label=T(u'Cantidad'),comment='xxx'),"
p105
sI9
S"\tdb.Field('ValorTotalProducto', type='double', label=T(u'ValorTotalProducto'),comment='xxx'),"
p106
sI10
S"\tdb.Field('ValorIva', type='double', label=T(u'ValorIva'),comment='xxx'),"
p107
sI11
S"\tdb.Field('PorcentajeDescuento', type='double', label=T(u'PorcentajeDescuento'),comment='xxx')"
p108
ssg83
S'()'
p109
sg85
S'<module>'
p110
sasS'pyver'
p111
S'Python 2.7.9: C:\\web2py\\web2py.exe (prefix: C:\\Python27)'
p112
sS'session'
p113
g57
(S's\x1d\t\x00\x00<div><table><tr><td style="font-weight:bold;vertical-align:top;">auth</td><td style="vertical-align:top;">:</td><td><div><table><tr><td style="font-weight:bold;vertical-align:top;">expiration</td><td style="vertical-align:top;">:</td><td><div>3600</div></td></tr><tr><td style="font-weight:bold;vertical-align:top;">hmac_key</td><td style="vertical-align:top;">:</td><td><div>da7c88ac-cb21-4ffd-92cb-05a0fe933039</div></td></tr><tr><td style="font-weight:bold;vertical-align:top;">last_visit</td><td style="vertical-align:top;">:</td><td><div>datetime.datetime(2016, 8, 27, 8, 58, 45, 505000)</div></td></tr><tr><td style="font-weight:bold;vertical-align:top;">remember_me</td><td style="vertical-align:top;">:</td><td><div>False</div></td></tr><tr><td style="font-weight:bold;vertical-align:top;">user</td><td style="vertical-align:top;">:</td><td><div><table><tr><td style="font-weight:bold;vertical-align:top;">email</td><td style="vertical-align:top;">:</td><td><div>sarluis1980@gmail.com</div></td></tr><tr><td style="font-weight:bold;vertical-align:top;">first_name</td><td style="vertical-align:top;">:</td><td><div>luis</div></td></tr><tr><td style="font-weight:bold;vertical-align:top;">id</td><td style="vertical-align:top;">:</td><td><div>1L</div></td></tr><tr><td style="font-weight:bold;vertical-align:top;">last_name</td><td style="vertical-align:top;">:</td><td><div>Sarmiento</div></td></tr><tr><td style="font-weight:bold;vertical-align:top;">registration_id</td><td style="vertical-align:top;">:</td><td><div></div></td></tr><tr><td style="font-weight:bold;vertical-align:top;">registration_key</td><td style="vertical-align:top;">:</td><td><div></div></td></tr><tr><td style="font-weight:bold;vertical-align:top;">reset_password_key</td><td style="vertical-align:top;">:</td><td><div>1469286248-7b57c50a-8621-4577-939c-f087839d87e9</div></td></tr></table></div></td></tr><tr><td style="font-weight:bold;vertical-align:top;">user_groups</td><td style="vertical-align:top;">:</td><td><div><table><tr><td style="font-weight:bold;vertical-align:top;">1</td><td style="vertical-align:top;">:</td><td><div>user_1</div></td></tr></table></div></td></tr></table></div></td></tr><tr><td style="font-weight:bold;vertical-align:top;">flash</td><td style="vertical-align:top;">:</td><td><div>None</div></td></tr></table></div>'
tRp114
sS'etype'
p115
S"<type 'exceptions.NameError'>"
p116
sS'date'
p117
S'Sat Aug 27 09:03:45 2016'
p118
sS'response'
p119
g57
(S'sA\x17\x00\x00<div><table><tr><td style="font-weight:bold;vertical-align:top;">body</td><td style="vertical-align:top;">:</td><td><div>&lt;cStringIO.StringO object at 0x093BAF00&gt;</div></td></tr><tr><td style="font-weight:bold;vertical-align:top;">cookies</td><td style="vertical-align:top;">:</td><td><div><table><tr><td style="font-weight:bold;vertical-align:top;">session_id_ascli</td><td style="vertical-align:top;">:</td><td><div>127.0.0.1-cb1e989d-1bd8-43a3-9b32-c5bfe1c01a13<table><tr><td style="font-weight:bold;vertical-align:top;">comment</td><td style="vertical-align:top;">:</td><td><div></div></td></tr><tr><td style="font-weight:bold;vertical-align:top;">domain</td><td style="vertical-align:top;">:</td><td><div></div></td></tr><tr><td style="font-weight:bold;vertical-align:top;">expires</td><td style="vertical-align:top;">:</td><td><div></div></td></tr><tr><td style="font-weight:bold;vertical-align:top;">httponly</td><td style="vertical-align:top;">:</td><td><div></div></td></tr><tr><td style="font-weight:bold;vertical-align:top;">max-age</td><td style="vertical-align:top;">:</td><td><div></div></td></tr><tr><td style="font-weight:bold;vertical-align:top;">path</td><td style="vertical-align:top;">:</td><td><div>/</div></td></tr><tr><td style="font-weight:bold;vertical-align:top;">secure</td><td style="vertical-align:top;">:</td><td><div></div></td></tr><tr><td style="font-weight:bold;vertical-align:top;">version</td><td style="vertical-align:top;">:</td><td><div></div></td></tr></table></div></td></tr></table></div></td></tr><tr><td style="font-weight:bold;vertical-align:top;">delimiters</td><td style="vertical-align:top;">:</td><td><div><table><tr><td><div>{{</div></td></tr><tr><td><div>}}</div></td></tr></table></div></td></tr><tr><td style="font-weight:bold;vertical-align:top;">files</td><td style="vertical-align:top;">:</td><td><div><table></table></div></td></tr><tr><td style="font-weight:bold;vertical-align:top;">flash</td><td style="vertical-align:top;">:</td><td><div></div></td></tr><tr><td style="font-weight:bold;vertical-align:top;">form_label_separator</td><td style="vertical-align:top;">:</td><td><div>: </div></td></tr><tr><td style="font-weight:bold;vertical-align:top;">formstyle</td><td style="vertical-align:top;">:</td><td><div>table3cols</div></td></tr><tr><td style="font-weight:bold;vertical-align:top;">generic_patterns</td><td style="vertical-align:top;">:</td><td><div><table><tr><td><div>*</div></td></tr></table></div></td></tr><tr><td style="font-weight:bold;vertical-align:top;">headers</td><td style="vertical-align:top;">:</td><td><div><table><tr><td style="font-weight:bold;vertical-align:top;">X-Powered-By</td><td style="vertical-align:top;">:</td><td><div>web2py</div></td></tr></table></div></td></tr><tr><td style="font-weight:bold;vertical-align:top;">menu</td><td style="vertical-align:top;">:</td><td><div><table></table></div></td></tr><tr><td style="font-weight:bold;vertical-align:top;">meta</td><td style="vertical-align:top;">:</td><td><div><table></table></div></td></tr><tr><td style="font-weight:bold;vertical-align:top;">models_to_run</td><td style="vertical-align:top;">:</td><td><div><table><tr><td><div>^\\w+\\.py$</div></td></tr><tr><td><div>^appadmin/\\w+\\.py$</div></td></tr><tr><td><div>^appadmin/hooks/\\w+\\.py$</div></td></tr></table></div></td></tr><tr><td style="font-weight:bold;vertical-align:top;">postprocessing</td><td style="vertical-align:top;">:</td><td><div><table></table></div></td></tr><tr><td style="font-weight:bold;vertical-align:top;">session_client</td><td style="vertical-align:top;">:</td><td><div>127.0.0.1</div></td></tr><tr><td style="font-weight:bold;vertical-align:top;">session_cookie_compression_level</td><td style="vertical-align:top;">:</td><td><div>None</div></td></tr><tr><td style="font-weight:bold;vertical-align:top;">session_cookie_expires</td><td style="vertical-align:top;">:</td><td><div>None</div></td></tr><tr><td style="font-weight:bold;vertical-align:top;">session_data_name</td><td style="vertical-align:top;">:</td><td><div>session_data_ascli</div></td></tr><tr><td style="font-weight:bold;vertical-align:top;">session_file</td><td style="vertical-align:top;">:</td><td><div>&lt;open file &#x27;C:\\\\web2py\\\\applications\\\\ascli\\\\sessions\\\\18f\\\\0e7\\\\127.0.0.1-cb1e989d-1bd8-43a3-9b32-c5bfe1c01a13&#x27;, mode &#x27;rb+&#x27; at 0x09662968&gt;</div></td></tr><tr><td style="font-weight:bold;vertical-align:top;">session_filename</td><td style="vertical-align:top;">:</td><td><div>C:\\web2py\\applications\\ascli\\sessions\\127.0.0.1-cb1e989d-1bd8-43a3-9b32-c5bfe1c01a13</div></td></tr><tr><td style="font-weight:bold;vertical-align:top;">session_hash</td><td style="vertical-align:top;">:</td><td><div>d871c13bf7806471f0e978f412cda20a</div></td></tr><tr><td style="font-weight:bold;vertical-align:top;">session_id</td><td style="vertical-align:top;">:</td><td><div>127.0.0.1-cb1e989d-1bd8-43a3-9b32-c5bfe1c01a13</div></td></tr><tr><td style="font-weight:bold;vertical-align:top;">session_id_name</td><td style="vertical-align:top;">:</td><td><div>session_id_ascli</div></td></tr><tr><td style="font-weight:bold;vertical-align:top;">session_locked</td><td style="vertical-align:top;">:</td><td><div>True</div></td></tr><tr><td style="font-weight:bold;vertical-align:top;">session_masterapp</td><td style="vertical-align:top;">:</td><td><div>ascli</div></td></tr><tr><td style="font-weight:bold;vertical-align:top;">session_new</td><td style="vertical-align:top;">:</td><td><div>False</div></td></tr><tr><td style="font-weight:bold;vertical-align:top;">session_storage_type</td><td style="vertical-align:top;">:</td><td><div>file</div></td></tr><tr><td style="font-weight:bold;vertical-align:top;">status</td><td style="vertical-align:top;">:</td><td><div>200</div></td></tr><tr><td style="font-weight:bold;vertical-align:top;">view</td><td style="vertical-align:top;">:</td><td><div>appadmin/hooks.html</div></td></tr></table></div>'
tRp120
sS'locals'
p121
(dp122
S'OBJECT'
p123
S"<class 'gluon.html.OBJECT'>"
p124
sS'SQLDB'
p125
S"<class 'pydal.base.DAL'>"
p126
sg113
S"<Storage {'auth': <Storage {'remember_me': False...ature=b5f61977a578fa83f2fc4bb4036ed799b32ee046'}>"
p127
sS'LINK'
p128
S"<class 'gluon.html.LINK'>"
p129
sS'BR'
p130
S"<class 'gluon.html.BR'>"
p131
sS'local_import'
p132
S'<function <lambda>>'
p133
sS'OPTGROUP'
p134
S"<class 'gluon.html.OPTGROUP'>"
p135
sS'PRE'
p136
S"<class 'gluon.html.PRE'>"
p137
sS'IS_INT_IN_RANGE'
p138
S"<class 'gluon.validators.IS_INT_IN_RANGE'>"
p139
sS'IS_LOWER'
p140
S"<class 'gluon.validators.IS_LOWER'>"
p141
sS'IS_STRONG'
p142
S"<class 'gluon.validators.IS_STRONG'>"
p143
sS'cache'
p144
S'<gluon.cache.Cache object>'
p145
sS'IS_IN_DB'
p146
S"<class 'gluon.validators.IS_IN_DB'>"
p147
sS'TAG'
p148
S'<gluon.html.__TAG__ object>'
p149
sS'SQLField'
p150
S"<class 'pydal.objects.Field'>"
p151
sS'BODY'
p152
S"<class 'gluon.html.BODY'>"
p153
sS'IS_DATE_IN_RANGE'
p154
S"<class 'gluon.validators.IS_DATE_IN_RANGE'>"
p155
sS'TH'
p156
S"<class 'gluon.html.TH'>"
p157
sS'URL'
p158
S'<function URL>'
p159
sS'__file__'
p160
S"r'C:\\web2py\\applications\\ascli\\models\\Temporales.py'"
p161
sS'P'
S"<class 'gluon.html.P'>"
p162
sS'TFOOT'
p163
S"<class 'gluon.html.TFOOT'>"
p164
sS'XHTML'
p165
S"<class 'gluon.html.XHTML'>"
p166
sS'ON'
p167
S'True'
p168
sS'OL'
p169
S"<class 'gluon.html.OL'>"
p170
sS'TEXTAREA'
p171
S"<class 'gluon.html.TEXTAREA'>"
p172
sS'MENU'
p173
S"<class 'gluon.html.MENU'>"
p174
sS'LOAD'
p175
S'<function LOAD>'
p176
sS'CODE'
p177
S"<class 'gluon.html.CODE'>"
p178
sS'HTTP'
p179
S"<class 'gluon.http.HTTP'>"
p180
sS'HR'
p181
S"<class 'gluon.html.HR'>"
p182
sS'IS_DATETIME'
p183
S"<class 'gluon.validators.IS_DATETIME'>"
p184
sS'HEAD'
p185
S"<class 'gluon.html.HEAD'>"
p186
sS'LABEL'
p187
S"<class 'gluon.html.LABEL'>"
p188
sS'CLEANUP'
p189
S"<class 'gluon.validators.CLEANUP'>"
p190
sS'SELECT'
p191
S"<class 'gluon.html.SELECT'>"
p192
sS'CENTER'
p193
S"<class 'gluon.html.CENTER'>"
p194
sS'__builtins__'
p195
S"{'ArithmeticError': <type 'exceptions.ArithmeticError'>, 'AssertionError': <type 'exceptions.AssertionError'>, 'AttributeError': <type 'exceptions.AttributeError'>, 'BaseException': <type 'exceptions.BaseException'>, 'BufferError': <type 'exceptions.BufferError'>, 'BytesWarning': <type 'exceptions.BytesWarning'>, 'DeprecationWarning': <type 'exceptions.DeprecationWarning'>, 'EOFError': <type 'exceptions.EOFError'>, 'Ellipsis': Ellipsis, 'EnvironmentError': <type 'exceptions.EnvironmentError'>, ...}"
p196
sS'HTML'
p197
S"<class 'gluon.html.HTML'>"
p198
sS'SQLFORM'
p199
S"<class 'gluon.sqlhtml.SQLFORM'>"
p200
sS'EM'
p201
S"<class 'gluon.html.EM'>"
p202
sS'redirect'
p203
S'<function redirect>'
p204
sS'FIELDSET'
p205
S"<class 'gluon.html.FIELDSET'>"
p206
sS'IS_EQUAL_TO'
p207
S"<class 'gluon.validators.IS_EQUAL_TO'>"
p208
sS'embed64'
p209
S'<function embed64>'
p210
sS'IS_LIST_OF'
p211
S"<class 'gluon.validators.IS_LIST_OF'>"
p212
sS'__name__'
p213
S"'__restricted__'"
p214
sS'EMBED'
p215
S"<class 'gluon.html.EMBED'>"
p216
sS'FORM'
p217
S"<class 'gluon.html.FORM'>"
p218
sS'H2'
p219
S"<class 'gluon.html.H2'>"
p220
sS'H3'
p221
S"<class 'gluon.html.H3'>"
p222
sS'BUTTON'
p223
S"<class 'gluon.html.BUTTON'>"
p224
sS'H1'
p225
S"<class 'gluon.html.H1'>"
p226
sS'H6'
p227
S"<class 'gluon.html.H6'>"
p228
sS'H4'
p229
S"<class 'gluon.html.H4'>"
p230
sS'H5'
p231
S"<class 'gluon.html.H5'>"
p232
sS'UL'
p233
S"<class 'gluon.html.UL'>"
p234
sS'IS_UPPER'
p235
S"<class 'gluon.validators.IS_UPPER'>"
p236
sS'xmlescape'
p237
S'<function xmlescape>'
p238
sS'IS_TIME'
p239
S"<class 'gluon.validators.IS_TIME'>"
p240
sS'OPTION'
p241
S"<class 'gluon.html.OPTION'>"
p242
sS'TITLE'
p243
S"<class 'gluon.html.TITLE'>"
p244
sS'CRYPT'
p245
S"<class 'gluon.validators.CRYPT'>"
p246
sS'IS_EMPTY_OR'
p247
S"<class 'gluon.validators.IS_EMPTY_OR'>"
p248
sS'MARKMIN'
p249
S"<class 'gluon.html.MARKMIN'>"
p250
sS'INPUT'
p251
S"<class 'gluon.html.INPUT'>"
p252
sS'STRONG'
p253
S"<class 'gluon.html.STRONG'>"
p254
sS'COL'
p255
S"<class 'gluon.html.COL'>"
p256
sS'SCRIPT'
p257
S"<class 'gluon.html.SCRIPT'>"
p258
sS'TABLE'
p259
S"<class 'gluon.html.TABLE'>"
p260
sS'IS_IPV4'
p261
S"<class 'gluon.validators.IS_IPV4'>"
p262
sS'IS_LENGTH'
p263
S"<class 'gluon.validators.IS_LENGTH'>"
p264
sS'IS_IPV6'
p265
S"<class 'gluon.validators.IS_IPV6'>"
p266
sS'XML'
p267
S"<class 'gluon.html.XML'>"
p268
sS'B'
S"<class 'gluon.html.B'>"
p269
sS'IMG'
p270
S"<class 'gluon.html.IMG'>"
p271
sS'SQLTABLE'
p272
S"<class 'gluon.sqlhtml.SQLTABLE'>"
p273
sS'IS_MATCH'
p274
S"<class 'gluon.validators.IS_MATCH'>"
p275
sS'IS_ALPHANUMERIC'
p276
S"<class 'gluon.validators.IS_ALPHANUMERIC'>"
p277
sS'SPAN'
p278
S"<class 'gluon.html.SPAN'>"
p279
sS'IS_JSON'
p280
S"<class 'gluon.validators.IS_JSON'>"
p281
sS'IS_IPADDRESS'
p282
S"<class 'gluon.validators.IS_IPADDRESS'>"
p283
sS'IS_SLUG'
p284
S"<class 'gluon.validators.IS_SLUG'>"
p285
sS'BEAUTIFY'
p286
S"<class 'gluon.html.BEAUTIFY'>"
p287
sS'META'
p288
S"<class 'gluon.html.META'>"
p289
sS'IS_DATE'
p290
S"<class 'gluon.validators.IS_DATE'>"
p291
sS'IS_EMAIL'
p292
S"<class 'gluon.validators.IS_EMAIL'>"
p293
sS'IS_NOT_EMPTY'
p294
S"<class 'gluon.validators.IS_NOT_EMPTY'>"
p295
sg56
S"<Storage {'_vars': None, 'function': 'hooks', 'c..., 'folder': 'C:\\\\web2py\\\\applications\\\\ascli\\\\'}>"
p296
sS'TBODY'
p297
S"<class 'gluon.html.TBODY'>"
p298
sS'CAT'
p299
S"<class 'gluon.html.CAT'>"
p300
sS'Field'
p301
S"<class 'pydal.objects.Field'>"
p302
sS'IS_LIST_OF_EMAILS'
p303
S"<class 'gluon.validators.IS_LIST_OF_EMAILS'>"
p304
sS'DIV'
p305
S"<class 'gluon.html.DIV'>"
p306
sS'LEGEND'
p307
S"<class 'gluon.html.LEGEND'>"
p308
sS'COLGROUP'
p309
S"<class 'gluon.html.COLGROUP'>"
p310
sS'DAL'
p311
S"<class 'pydal.base.DAL'>"
p312
sS'ASSIGNJS'
p313
S'<function ASSIGNJS>'
p314
sS'TR'
p315
S"<class 'gluon.html.TR'>"
p316
sS'LI'
p317
S"<class 'gluon.html.LI'>"
p318
sS'IFRAME'
p319
S"<class 'gluon.html.IFRAME'>"
p320
sS'TD'
p321
S"<class 'gluon.html.TD'>"
p322
sS'IS_URL'
p323
S"<class 'gluon.validators.IS_URL'>"
p324
sS'A'
S"<class 'gluon.html.A'>"
p325
sS'STYLE'
p326
S"<class 'gluon.html.STYLE'>"
p327
sS'IS_DATETIME_IN_RANGE'
p328
S"<class 'gluon.validators.IS_DATETIME_IN_RANGE'>"
p329
sS'IS_IMAGE'
p330
S"<class 'gluon.validators.IS_IMAGE'>"
p331
sS'I'
S"<class 'gluon.html.I'>"
p332
sS'IS_NOT_IN_DB'
p333
S"<class 'gluon.validators.IS_NOT_IN_DB'>"
p334
sg119
S"<Storage {'body': <cStringIO.StringO object at 0...> at 0x03E737F0>, 'view': 'appadmin/hooks.html'}>"
p335
sS'THEAD'
p336
S"<class 'gluon.html.THEAD'>"
p337
sS'ANY_OF'
p338
S"<class 'gluon.validators.ANY_OF'>"
p339
sS'IS_NULL_OR'
p340
S"<class 'gluon.validators.IS_EMPTY_OR'>"
p341
sS'IS_FLOAT_IN_RANGE'
p342
S"<class 'gluon.validators.IS_FLOAT_IN_RANGE'>"
p343
sS'IS_EXPR'
p344
S"<class 'gluon.validators.IS_EXPR'>"
p345
sS'IS_IN_SET'
p346
S"<class 'gluon.validators.IS_IN_SET'>"
p347
sS'IS_UPLOAD_FILENAME'
p348
S"<class 'gluon.validators.IS_UPLOAD_FILENAME'>"
p349
sS'IS_DECIMAL_IN_RANGE'
p350
S"<class 'gluon.validators.IS_DECIMAL_IN_RANGE'>"
p351
sS'TT'
p352
S"<class 'gluon.html.TT'>"
p353
sS'T'
S'<gluon.languages.translator object>'
p354
sssS'traceback'
p355
S'Traceback (most recent call last):\n  File "C:\\web2py\\gluon\\restricted.py", line 227, in restricted\n    exec ccode in environment\n  File "C:\\web2py\\applications\\ascli\\models\\Temporales.py", line 2, in <module>\n    db.define_table(\'tbtmp_linea_venta\',\nNameError: name \'db\' is not defined\n'
p356
s.