(dp1
S'output'
p2
S"<type 'exceptions.SyntaxError'> invalid syntax (dbascli.py, line 463)"
p3
sS'layer'
p4
S'C:\\Users\\1229601\\Documents\\web2py\\applications\\ascli\\models\\dbascli.py'
p5
sS'code'
p6
S"# -*- coding: utf-8 -*-\ndb.define_table('TbAbonosDeudas',\n\tdb.Field('IdAbono', type='double', label=T(u'IdAbono'),comment='xxx'),\n\tdb.Field('IdTabla', type='text', length=1, label=T(u'IdTabla'),comment='xxx'),\n\tdb.Field('ConsecutivoFactura', type='double', label=T(u'ConsecutivoFactura'),comment='xxx'),\n\tdb.Field('ValorAbono', type='double', label=T(u'ValorAbono'),comment='xxx'),\n\tdb.Field('FechaPago', type='date', label=T(u'FechaPago'),comment='xxx')\n\t)\ndb.define_table('TbAhorrosDiarios',\n\tdb.Field('IdAhorroDiario', type='double', label=T(u'IdAhorroDiario'),comment='xxx'),\n\tdb.Field('Descripcion', type='string', length=30, label=T(u'Descripcion'),comment='xxx'),\n\tdb.Field('Prioridad', type='text', length=1, label=T(u'Prioridad'),comment='xxx'),\n\tdb.Field('Tipo', type='text', length=1, label=T(u'Tipo'),comment='xxx'),\n\tdb.Field('Valor', type='double', label=T(u'Valor'),comment='xxx'),\n\tdb.Field('IdEmpleado', type='string', length=15, label=T(u'IdEmpleado'),comment='xxx'),\n\tdb.Field('Fecha_Modificacion', type='date', label=T(u'Fecha_Modificacion'),comment='xxx'),\n\tdb.Field('Observacion', type='string', length=1000, label=T(u'Observacion'),comment='xxx'),\n\tdb.Field('IdUbicacion', type='text', length=2, label=T(u'IdUbicacion'),comment='xxx')\n\t)\ndb.define_table('TbCambiosDevoluciones',\n\tdb.Field('IdCambioDevolucion', type='double', label=T(u'IdCambioDevolucion'),comment='xxx'),\n\tdb.Field('IdEmpleado', type='string', length=15, label=T(u'IdEmpleado'),comment='xxx'),\n\tdb.Field('IdUbicacion', type='text', length=2, label=T(u'IdUbicacion'),comment='xxx'),\n\tdb.Field('IdProducto', type='double', label=T(u'IdProducto'),comment='xxx'),\n\tdb.Field('Cantidad', type='double', label=T(u'Cantidad'),comment='xxx'),\n\tdb.Field('ValorTotal', type='double', label=T(u'ValorTotal'),comment='xxx'),\n\tdb.Field('Fecha', type='date', label=T(u'Fecha'),comment='xxx'),\n\tdb.Field('Hora', type='datetime', label=T(u'Hora'),comment='xxx'),\n\tdb.Field('Causa', type='string', length=20, label=T(u'Causa'),comment='xxx'),\n\tdb.Field('Observacion', type='string', length=1000, label=T(u'Observacion'),comment='xxx'),\n\tdb.Field('DevolverDinero', type='text', length=1, label=T(u'DevolverDinero'),comment='xxx')\n\t)\ndb.define_table('TbCuentas',\n\tdb.Field('IdCuenta', type='text', length=10, label=T(u'IdCuenta'),comment='xxx'),\n\tdb.Field('NombreCuenta', type='string', length=100, label=T(u'NombreCuenta'),comment='xxx'),\n\tdb.Field('Descripcion', type='string', length=500, label=T(u'Descripcion'),comment='xxx')\n\t)\ndb.define_table('TbLinea_AhorrosDiarios',\n\tdb.Field('IdConsecutivoAhorro', type='double', label=T(u'IdConsecutivoAhorro'),comment='xxx'),\n\tdb.Field('IdAhorroDiario', type='double', label=T(u'IdAhorroDiario'),comment='xxx'),\n\tdb.Field('ValorIngreso', type='double', label=T(u'ValorIngreso'),comment='xxx'),\n\tdb.Field('Fecha', type='text', length=10, label=T(u'Fecha'),comment='xxx'),\n\tdb.Field('IdEmpleado', type='text', length=10, label=T(u'IdEmpleado'),comment='xxx')\n\t)\ndb.define_table('tbAdelantosPagosEmpleados',\n\tdb.Field('IdPagoAdelanto', type='string', length=15, label=T(u'IdPagoAdelanto'),comment='xxx'),\n\tdb.Field('IdEmpleado', type='string', length=15, label=T(u'IdEmpleado'),comment='xxx'),\n\tdb.Field('FechaAdelanto', type='datetime', label=T(u'FechaAdelanto'),comment='xxx'),\n\tdb.Field('IdPeriodo', type='text', length=8, label=T(u'IdPeriodo'),comment='xxx'),\n\tdb.Field('ValorAdelanto', type='double', label=T(u'ValorAdelanto'),comment='xxx'),\n\tdb.Field('Observacion', type='string', length=8000, label=T(u'Observacion'),comment='xxx')\n\t)\ndb.define_table('tbArticulos_Demandados',\n\tdb.Field('IdProducto', type='string', length=20, label=T(u'IdProducto'),comment='xxx'),\n\tdb.Field('NombreProducto', type='string', length=40, label=T(u'NombreProducto'),comment='xxx'),\n\tdb.Field('Descripcion', type='string', length=8000, label=T(u'Descripcion'),comment='xxx'),\n\tdb.Field('Contador', type='double', label=T(u'Contador'),comment='xxx')\n\t)\ndb.define_table('tbCaja',\n\tdb.Field('Fecha', type='date', label=T(u'Fecha'),comment='xxx'),\n\tdb.Field('IdUbicacion', type='text', length=2, label=T(u'IdUbicacion'),comment='xxx'),\n\tdb.Field('ValorInicial', type='double', label=T(u'ValorInicial'),comment='xxx'),\n\tdb.Field('ValorFinal', type='double', label=T(u'ValorFinal'),comment='xxx')\n\t)\ndb.define_table('tbCargo',\n\tdb.Field('IdCargo', type='text', length=2, label=T(u'IdCargo'),comment='xxx'),\n\tdb.Field('Nombre', type='string', length=30, label=T(u'Nombre'),comment='xxx'),\n\tdb.Field('Descripcion', type='string', length=1000, label=T(u'Descripcion'),comment='xxx')\n\t)\ndb.define_table('tbCategorias',\n\tdb.Field('IdCategoria', type='text', length=6, label=T(u'IdCategoria'),comment='xxx'),\n\tdb.Field('NombreCategoria', type='string', length=20, label=T(u'NombreCategoria'),comment='xxx'),\n\tdb.Field('Descripcion', type='string', length=1000, label=T(u'Descripcion'),comment='xxx')\n\t)\ndb.define_table('tbCierreCategorias',\n\tdb.Field('IdCategoria', type='text', length=4, label=T(u'IdCategoria'),comment='xxx'),\n\tdb.Field('IdEmpresa', type='string', length=15, label=T(u'IdEmpresa'),comment='xxx')\n\t)\ndb.define_table('tbCierresEmpleados',\n\tdb.Field('IdCierre', type='string', length=20, label=T(u'IdCierre'),comment='xxx'),\n\tdb.Field('IdEmpleado', type='string', length=15, label=T(u'IdEmpleado'),comment='xxx'),\n\tdb.Field('FechaHora', type='datetime', label=T(u'FechaHora'),comment='xxx')\n\t)\ndb.define_table('tbCitas',\n\tdb.Field('idCita', type='text', length=10, label=T(u'idCita'),comment='xxx'),\n\tdb.Field('IdContacto', type='string', length=15, label=T(u'IdContacto'),comment='xxx'),\n\tdb.Field('FechaCita', type='datetime', label=T(u'FechaCita'),comment='xxx'),\n\tdb.Field('FechaAviso', type='datetime', label=T(u'FechaAviso'),comment='xxx'),\n\tdb.Field('Cola', type='text', length=1, label=T(u'Cola'),comment='xxx'),\n\tdb.Field('Descripcion', type='string', length=2000, label=T(u'Descripcion'),comment='xxx')\n\t)\ndb.define_table('tbClientes',\n\tdb.Field('NitEmpresa', type='string', length=20, label=T(u'NitEmpresa'),comment='xxx'),\n\tdb.Field('Empresa', type='string', length=40, label=T(u'Empresa'),comment='xxx'),\n\tdb.Field('Direccion', type='string', length=40, label=T(u'Direccion'),comment='xxx'),\n\tdb.Field('Telefono', type='string', length=20, label=T(u'Telefono'),comment='xxx'),\n\tdb.Field('IdContacto', type='string', length=15, label=T(u'IdContacto'),comment='xxx'),\n\tdb.Field('NombreContacto', type='string', length=45, label=T(u'NombreContacto'),comment='xxx'),\n\tdb.Field('Mail', type='string', length=45, label=T(u'Mail'),comment='xxx'),\n\tdb.Field('observacion', type='string', length=1000, label=T(u'observacion'),comment='xxx')\n\t)\ndb.define_table('tbCodigoGastos',\n\tdb.Field('CodigoGasto', type='text', length=3, label=T(u'CodigoGasto'),comment='xxx'),\n\tdb.Field('Nombre', type='string', length=40, label=T(u'Nombre'),comment='xxx')\n\t)\ndb.define_table('tbCodigoPermisos',\n\tdb.Field('IdPermiso', type='text', length=2, label=T(u'IdPermiso'),comment='xxx'),\n\tdb.Field('Descripcion', type='string', length=100, label=T(u'Descripcion'),comment='xxx'),\n\tdb.Field('Remonerado', type='text', length=1, label=T(u'Remonerado'),comment='xxx')\n\t)\ndb.define_table('tbCompras',\n\tdb.Field('Consecutivo', type='double', label=T(u'Consecutivo'),comment='xxx'),\n\tdb.Field('IdCompra', type='string', length=15, label=T(u'IdCompra'),comment='xxx'),\n\tdb.Field('IdProveedor', type='string', length=20, label=T(u'IdProveedor'),comment='xxx'),\n\tdb.Field('Anulada', type='text', length=1, label=T(u'Anulada'),comment='xxx'),\n\tdb.Field('TotalIva', type='double', label=T(u'TotalIva'),comment='xxx'),\n\tdb.Field('TotalVenta', type='double', label=T(u'TotalVenta'),comment='xxx'),\n\tdb.Field('IdEmpleado', type='string', length=15, label=T(u'IdEmpleado'),comment='xxx'),\n\tdb.Field('Fecha', type='date', label=T(u'Fecha'),comment='xxx'),\n\tdb.Field('FechaVence', type='date', label=T(u'FechaVence'),comment='xxx'),\n\tdb.Field('IdUbicacion', type='text', length=2, label=T(u'IdUbicacion'),comment='xxx'),\n\tdb.Field('Observacion', type='string', length=1000, label=T(u'Observacion'),comment='xxx'),\n\tdb.Field('ValorDescuento', type='double', label=T(u'ValorDescuento'),comment='xxx'),\n\tdb.Field('valorIvaDescuento', type='double', label=T(u'valorIvaDescuento'),comment='xxx'),\n\tdb.Field('Pagada', type='text', length=1, label=T(u'Pagada'),comment='xxx')\n\t)\ndb.define_table('tbCotizaciones',\n\tdb.Field('IdCotizacion', type='text', length=10, label=T(u'IdCotizacion'),comment='xxx'),\n\tdb.Field('NitEmpresa', type='string', length=20, label=T(u'NitEmpresa'),comment='xxx'),\n\tdb.Field('TotalVenta', type='double', label=T(u'TotalVenta'),comment='xxx'),\n\tdb.Field('TotalIva', type='double', label=T(u'TotalIva'),comment='xxx'),\n\tdb.Field('IdEmpleado', type='string', length=15, label=T(u'IdEmpleado'),comment='xxx'),\n\tdb.Field('Fecha', type='datetime', label=T(u'Fecha'),comment='xxx'),\n\tdb.Field('FechaVence', type='date', label=T(u'FechaVence'),comment='xxx'),\n\tdb.Field('IdUbicacion', type='text', length=2, label=T(u'IdUbicacion'),comment='xxx'),\n\tdb.Field('Observacion', type='string', length=8000, label=T(u'Observacion'),comment='xxx'),\n\tdb.Field('PasadaParaVenta', type='text', length=1, label=T(u'PasadaParaVenta'),comment='xxx')\n\t)\ndb.define_table('tbDirectorio',\t\n\tdb.Field('IdContacto', type='string', length=15, label=T(u'IdContacto'),comment='xxx'),\n\tdb.Field('Nombre', type='string', length=30, label=T(u'Nombre'),comment='xxx'),\n\tdb.Field('PrimerApellido', type='string', length=20, label=T(u'PrimerApellido'),comment='xxx'),\n\tdb.Field('SegundoApellido', type='string', length=20, label=T(u'SegundoApellido'),comment='xxx'),\n\tdb.Field('DireccionCasa', type='string', length=50, label=T(u'DireccionCasa'),comment='xxx'),\n\tdb.Field('TelefonoCasa', type='string', length=20, label=T(u'TelefonoCasa'),comment='xxx'),\n\tdb.Field('Celular', type='string', length=30, label=T(u'Celular'),comment='xxx'),\n\tdb.Field('Beeper', type='string', length=20, label=T(u'Beeper'),comment='xxx'),\n\tdb.Field('Empresa', type='string', length=40, label=T(u'Empresa'),comment='xxx'),\n\tdb.Field('TelefonoEmpresa', type='text', length=10, label=T(u'TelefonoEmpresa'),comment='xxx'),\n\tdb.Field('IdGrupo', type='text', length=2, label=T(u'IdGrupo'),comment='xxx'),\n\tdb.Field('Comentarios', type='text', length=10, label=T(u'Comentarios'),comment='xxx')\n\t)\ndb.define_table('tbEmpleados',\n\tdb.Field('IdEmpleado', type='string', length=15, label=T(u'Identificaci\xc3\xb3n'),comment='xxx'),\n\tdb.Field('Nombre', type='string', length=40, label=T(u'Nombre'),comment='xxx'),\n\tdb.Field('PrimerApellido', type='string', length=15, label=T(u'Primer Apellido'),comment='xxx'),\n\tdb.Field('SegundoApellido', type='string', length=15, label=T(u'Segundo Apellido'),comment='xxx'),\n\tdb.Field('Direccion', type='string', length=50, label=T(u'Direcci\xc3\xb3n'),comment='xxx'),\n\tdb.Field('telefono', type='string', length=20, label=T(u'Tel\xc3\xa9fono'),comment='xxx'),\n\tdb.Field('Mail', type='string', length=60, label=T(u'Mail'),comment='Ingrese el email', requires=IS_EMAIL()),\n\tdb.Field('Observacion', type='string', length=4000, label=T(u'Observacion'),comment='xxx'),\n\tdb.Field('FechaNacimiento', type='date', label=T(u'FechaNacimiento'),comment='xxx'),\n\tdb.Field('IdUbicacion', type='text', length=2, label=T(u'IdUbicacion'),comment='xxx'),\n\tdb.Field('IdEstado', type='text', length=2, label=T(u'IdEstado'),comment='xxx'),\n\tdb.Field('IdCargo', type='text', length=2, label=T(u'IdCargo'),comment='xxx'),\n\tdb.Field('SalarioBase', type='double', label=T(u'SalarioBase'),comment='xxx'),\n\tdb.Field('FechaIng', type='date', label=T(u'FechaIng'),comment='xxx'),\n\tdb.Field('Festringetiro', type='date', label=T(u'Festringetiro'),comment='xxx'),\n\tdb.Field('NombrePadre', type='string', length=30, label=T(u'NombrePadre'),comment='xxx'),\n\tdb.Field('NombreMadre', type='string', length=30, label=T(u'NombreMadre'),comment='xxx'),\n\tdb.Field('EstadoCivil', type='string', length=20, label=T(u'EstadoCivil'),comment='xxx'),\n\tdb.Field('NombreEsposo_a', type='string', length=30, label=T(u'NombreEsposo_a'),comment='xxx'),\n\tdb.Field('NumeroHijos', type='double', label=T(u'NumeroHijos'),comment='xxx')\n\t)\ndb.define_table('tbEstado',\n\tdb.Field('IdEstado', type='text', length=2, label=T(u'IdEstado'),comment='xxx'),\n\tdb.Field('Nombre', type='string', length=20, label=T(u'Nombre'),comment='xxx'),\n\tdb.Field('Descripcion', type='string', length=3000, label=T(u'Descripcion'),comment='xxx')\n\t)\ndb.define_table('tbFrases',\n\tdb.Field('IdFrase', type='text', length=10, label=T(u'IdFrase'),comment='xxx'),\n\tdb.Field('Descripcion', type='string', length=8000, label=T(u'Descripcion'),comment='xxx'),\n\tdb.Field('fechaMuestra', type='datetime', label=T(u'fechaMuestra'),comment='xxx'),\n\tdb.Field('HoraMuestra', type='date', label=T(u'HoraMuestra'),comment='xxx')\n\t)\ndb.define_table('tbGastos',\n\tdb.Field('idGasto', type='text', length=10, label=T(u'idGasto'),comment='xxx'),\n\tdb.Field('CodigoGasto', type='text', length=3, label=T(u'CodigoGasto'),comment='xxx'),\n\tdb.Field('IdEmpleado', type='string', length=15, label=T(u'IdEmpleado'),comment='xxx'),\n\tdb.Field('IdUbicacion', type='text', length=2, label=T(u'IdUbicacion'),comment='xxx'),\n\tdb.Field('Valor', type='double', label=T(u'Valor'),comment='xxx'),\n\tdb.Field('fecha', type='datetime', label=T(u'fecha'),comment='xxx'),\n\tdb.Field('Descripcion', type='string', length=3000, label=T(u'Descripcion'),comment='xxx')\n\t)\ndb.define_table('tbGruposLlamadas',\n\tdb.Field('idGrupo', type='text', length=2, label=T(u'idGrupo'),comment='xxx'),\n\tdb.Field('Nombre', type='string', length=20, label=T(u'Nombre'),comment='xxx'),\n\tdb.Field('Descripcion', type='string', length=1000, label=T(u'Descripcion'),comment='xxx')\n\t)\ndb.define_table('tbHoras_Trabajadas',\n\tdb.Field('IdEmpleado', type='string', length=15, label=T(u'IdEmpleado'),comment='xxx'),\n\tdb.Field('Fecha', type='date', label=T(u'Fecha'),comment='xxx'),\n\tdb.Field('IdUbicacion', type='text', length=2, label=T(u'IdUbicacion'),comment='xxx'),\n\tdb.Field('Hora_Entrada', type='datetime', label=T(u'Hora_Entrada'),comment='xxx'),\n\tdb.Field('Hora_Salida', type='datetime', label=T(u'Hora_Salida'),comment='xxx'),\n\tdb.Field('Dinero_Recaudado', type='double', label=T(u'Dinero_Recaudado'),comment='xxx')\n\t)\ndb.define_table('tbLineaOrdenesPedidosTrabajo',\n\tdb.Field('IdOrdenPedidoTrabajo', type='text', length=10, label=T(u'IdOrdenPedidoTrabajo'),comment='xxx'),\n\tdb.Field('idProducto', type='double', label=T(u'idProducto'),comment='xxx'),\n\tdb.Field('ValorTotal', type='double', label=T(u'ValorTotal'),comment='xxx'),\n\tdb.Field('Cantidad', type='double', label=T(u'Cantidad'),comment='xxx'),\n\tdb.Field('ValorIva', type='double', label=T(u'ValorIva'),comment='xxx'),\n\tdb.Field('FechaEntragaMaterial', type='date', label=T(u'FechaEntragaMaterial'),comment='xxx'),\n\tdb.Field('Descricion', type='string', length=3000, label=T(u'Descricion'),comment='xxx')\n\t)\ndb.define_table('tbLineaPiloto',\n\tdb.Field('IdPiloto', type='string', length=20, label=T(u'IdPiloto'),comment='xxx'),\n\tdb.Field('IdProducto', type='double', label=T(u'IdProducto'),comment='xxx'),\n\tdb.Field('cantidad', type='double', label=T(u'cantidad'),comment='xxx'),\n\tdb.Field('ValorTotal', type='double', label=T(u'ValorTotal'),comment='xxx'),\n\tdb.Field('ValorIva', type='double', label=T(u'ValorIva'),comment='xxx')\n\t)\ndb.define_table('tbLineaProducFacturaAnulada',\n\tdb.Field('IdVenta', type='double', label=T(u'IdVenta'),comment='xxx'),\n\tdb.Field('IdProducto', type='text', length=10, label=T(u'IdProducto'),comment='xxx'),\n\tdb.Field('Motivo', type='text', length=1, label=T(u'Motivo'),comment='xxx'),\n\tdb.Field('fecha', type='datetime', label=T(u'fecha'),comment='xxx'),\n\tdb.Field('Descripcin', type='string', length=2000, label=T(u'Descripcin'),comment='xxx')\n\t)\ndb.define_table('tbLinea_Compra',\n\tdb.Field('Consecutivo', type='double', label=T(u'Consecutivo'),comment='xxx'),\n\tdb.Field('IdCompra', type='string', length=15, label=T(u'IdCompra'),comment='xxx'),\n\tdb.Field('IdProducto', type='integer', label=T(u'IdProducto'),comment='xxx'),\n\tdb.Field('IdProveedor', type='string', length=20, label=T(u'IdProveedor'),comment='xxx'),\n\tdb.Field('Cantidad', type='double', label=T(u'Cantidad'),comment='xxx'),\n\tdb.Field('ValorUnitario', type='double', label=T(u'ValorUnitario'),comment='xxx'),\n\tdb.Field('ValorIva', type='double', label=T(u'ValorIva'),comment='xxx'),\n\tdb.Field('IdCuenta', type='text', length=8, label=T(u'IdCuenta'),comment='xxx')\n\t)\ndb.define_table('tbLinea_Cotizaciones',\n\tdb.Field('IdCotizacion', type='text', length=10, label=T(u'IdCotizacion'),comment='xxx'),\n\tdb.Field('IdProducto', type='double', label=T(u'IdProducto'),comment='xxx'),\n\tdb.Field('Cantidad', type='double', label=T(u'Cantidad'),comment='xxx'),\n\tdb.Field('ValorTotal', type='double', label=T(u'ValorTotal'),comment='xxx'),\n\tdb.Field('ValorIva', type='double', label=T(u'ValorIva'),comment='xxx')\n\t)\ndb.define_table('tbLinea_Produccion',\n\tdb.Field('IdProduccion', type='text', length=5, label=T(u'IdProduccion'),comment='xxx'),\n\tdb.Field('Paso', type='double', label=T(u'Paso'),comment='xxx'),\n\tdb.Field('Descripcion', type='string', length=2000, label=T(u'Descripcion'),comment='xxx'),\n\tdb.Field('Fecha', type='text', length=10, label=T(u'Fecha'),comment='xxx'),\n\tdb.Field('Modificado_Paso', type='text', length=1, label=T(u'Modificado_Paso'),comment='xxx'),\n\tdb.Field('IdEmpleado', type='string', length=15, label=T(u'IdEmpleado'),comment='xxx')\n\t)\ndb.define_table('tbLinea_Remision_Almacen',\n\tdb.Field('IdRemision', type='double', label=T(u'IdRemision'),comment='xxx'),\n\tdb.Field('IdUbicacionOrigina', type='text', length=2, label=T(u'IdUbicacionOrigina'),comment='xxx'),\n\tdb.Field('IdProducto', type='double', label=T(u'IdProducto'),comment='xxx'),\n\tdb.Field('Cantidad', type='double', label=T(u'Cantidad'),comment='xxx'),\n\tdb.Field('ValorUnitario', type='double', label=T(u'ValorUnitario'),comment='xxx')\n\t)\ndb.define_table('tbLinea_Venta',\n\tdb.Field('IdVenta', type='integer', label=T(u'IdVenta'),comment='xxx'),\n\tdb.Field('IdProducto', type='integer', label=T(u'IdProducto'),comment='xxx'),\n\tdb.Field('IdUbicacion', type='text', length=2, label=T(u'IdUbicacion'),comment='xxx'),\n\tdb.Field('Cantidad', type='double', label=T(u'Cantidad'),comment='xxx'),\n\tdb.Field('ValorTotalProducto', type='double', label=T(u'ValorTotalProducto'),comment='xxx'),\n\tdb.Field('ValorIva', type='double', label=T(u'ValorIva'),comment='xxx'),\n\tdb.Field('PorcentajeDescuento', type='double', label=T(u'PorcentajeDescuento'),comment='xxx')\n\t)\ndb.define_table('tbLineraPagoVales_Prestmos',\n\tdb.Field('IdVales_Prestmos', type='text', length=10, label=T(u'IdVales_Prestmos'),comment='xxx'),\n\tdb.Field('IdCuota', type='text', length=3, label=T(u'IdCuota'),comment='xxx'),\n\tdb.Field('Valor', type='double', label=T(u'Valor'),comment='xxx'),\n\tdb.Field('Fecha', type='datetime', label=T(u'Fecha'),comment='xxx'),\n\tdb.Field('Observacion', type='string', length=2000, label=T(u'Observacion'),comment='xxx'),\n\tdb.Field('IdEmpleado', type='string', length=15, label=T(u'IdEmpleado'),comment='xxx'),\n\tdb.Field('IdUbicacion', type='text', length=2, label=T(u'IdUbicacion'),comment='xxx')\n\t)\ndb.define_table('tbLlamadasClientes',\n\tdb.Field('IdLlamada', type='double', label=T(u'IdLlamada'),comment='xxx'),\n\tdb.Field('IdEmpleado', type='string', length=15, label=T(u'IdEmpleado'),comment='xxx'),\n\tdb.Field('NitEmpresa', type='string', length=20, label=T(u'NitEmpresa'),comment='xxx'),\n\tdb.Field('FechaLlamada', type='date', label=T(u'FechaLlamada'),comment='xxx'),\n\tdb.Field('FechaProximaLlamada', type='date', label=T(u'FechaProximaLlamada'),comment='xxx'),\n\tdb.Field('DatosObservaciones', type='string', length=8000, label=T(u'DatosObservaciones'),comment='xxx'),\n\tdb.Field('Cola', type='text', length=1, label=T(u'Cola'),comment='xxx')\n\t)\ndb.define_table('tbObjetos',\n\tdb.Field('idObjeto', type='text', length=3, label=T(u'idObjeto'),comment='xxx'),\n\tdb.Field('Formulario', type='string', length=50, label=T(u'Formulario'),comment='xxx'),\n\tdb.Field('Descripcion', type='string', length=8000, label=T(u'Descripcion'),comment='xxx')\n\t)\ndb.define_table('tbOrdenePedidosTrabajo',\n\tdb.Field('IdOrdenPedidoTrabajo', type='text', length=10, label=T(u'IdOrdenPedidoTrabajo'),comment='xxx'),\n\tdb.Field('NitEmpresa', type='string', length=20, label=T(u'NitEmpresa'),comment='xxx'),\n\tdb.Field('ValotTotal', type='double', label=T(u'ValotTotal'),comment='xxx'),\n\tdb.Field('Valoriva', type='double', label=T(u'Valoriva'),comment='xxx'),\n\tdb.Field('Fecha', type='datetime', label=T(u'Fecha'),comment='xxx'),\n\tdb.Field('FechaEntraga', type='text', length=10, label=T(u'FechaEntraga'),comment='xxx'),\n\tdb.Field('IdEmpleado', type='string', length=15, label=T(u'IdEmpleado'),comment='xxx'),\n\tdb.Field('IdUbicacion', type='text', length=2, label=T(u'IdUbicacion'),comment='xxx'),\n\tdb.Field('Descripcion', type='string', length=8000, label=T(u'Descripcion'),comment='xxx'),\n\tdb.Field('Observaciones', type='string', length=8000, label=T(u'Observaciones'),comment='xxx')\n\t)\ndb.define_table('tbPagosEmpleados',\n\tdb.Field('IdPago', type='string', length=15, label=T(u'IdPago'),comment='xxx'),\n\tdb.Field('IdEmpleado', type='string', length=15, label=T(u'IdEmpleado'),comment='xxx'),\n\tdb.Field('Fecha_Pago', type='datetime', label=T(u'Fecha_Pago'),comment='xxx'),\n\tdb.Field('Valor_Pago', type='double', label=T(u'Valor_Pago'),comment='xxx'),\n\tdb.Field('IdPeriodo', type='text', length=8, label=T(u'IdPeriodo'),comment='xxx'),\n\tdb.Field('Observacion', type='string', length=8000, label=T(u'Observacion'),comment='xxx')\n\t)\ndb.define_table('tbPeriodoPagos',\n\tdb.Field('IdPeriodo', type='text', length=8, label=T(u'IdPeriodo'),comment='xxx'),\n\tdb.Field('FechaInicio', type='date', label=T(u'FechaInicio'),comment='xxx'),\n\tdb.Field('FechaFin', type='date', label=T(u'FechaFin'),comment='xxx'),\n\tdb.Field('Descripcion', type='string', length=3000, label=T(u'Descripcion'),comment='xxx')\n\t)\ndb.define_table('tbPermisosEmpleados',\n\tdb.Field('NumPermiso', type='text', length=8, label=T(u'NumPermiso'),comment='xxx'),\n\tdb.Field('IdPermiso', type='text', length=2, label=T(u'IdPermiso'),comment='xxx'),\n\tdb.Field('IdEmpleado', type='string', length=15, label=T(u'IdEmpleado'),comment='xxx'),\n\tdb.Field('FechaInicio', type='datetime', label=T(u'FechaInicio'),comment='xxx'),\n\tdb.Field('FechaFinal', type='datetime', label=T(u'FechaFinal'),comment='xxx'),\n\tdb.Field('Observaciones', type='string', length=8000, label=T(u'Observaciones'),comment='xxx')\n\t)\ndb.define_table('tbPermisosSoftware',\n\tdb.Field('IdObjeto', type='text', length=3, label=T(u'IdObjeto'),comment='xxx'),\n\tdb.Field('IdUsuarios', type='string', length=15, label=T(u'IdUsuarios'),comment='xxx')\n\t)\ndb.define_table('tbProduccion',\n\tdb.Field('idProduccion', type='text', length=5, label=T(u'idProduccion'),comment='xxx'),\n\tdb.Field('Nombre', type='string', length=100, label=T(u'Nombre'),comment='xxx'),\n\tdb.Field('Comentario', type='string', length=1000, label=T(u'Comentario'),comment='xxx')\n\t)\ndb.define_table('tbProductos',\n\tdb.Field('IdProducto', type='integer', label=T(u'IdProducto'),comment='xxx'),\n\tdb.Field('CodBarra', type='string', length=30, label=T(u'CodBarra'),comment='xxx'),\n\tdb.Field('Nombre', type='string', length=50, label=T(u'Nombre'),comment='xxx'),\n\tdb.Field('PrecioCompra', type='double', label=T(u'PrecioCompra'),comment='xxx'),\n\tdb.Field('PrecioUnitVenta', type='double', label=T(u'PrecioUnitVenta'),comment='xxx'),\n\tdb.Field('PorcentajeIva', type='double', label=T(u'PorcentajeIva'),comment='xxx'),\n\tdb.Field('IdCategoria', type='text', length=6, label=T(u'IdCategoria'),comment='xxx'),\n\tdb.Field('Observacion', type='string', length=1000, label=T(u'Observacion'),comment='xxx'),\n\tdb.Field('ProdPiloto', type='text', length=1, label=T(u'ProdPiloto'),comment='xxx'),\n\tdb.Field('IvaIncluidoPrecio', type='text', length=1, label=T(u'IvaIncluidoPrecio'),comment='xxx'),\n\tdb.Field('IdEmpleado', type='string', length=15, label=T(u'IdEmpleado'),comment='xxx'),\n\tdb.Field('Fecha_Modificacion', type='date', label=T(u'Fecha_Modificacion'),comment='xxx')\n\t)\ndb.define_table('tbProductosPilotos',\n\tdb.Field('IdPiloto', type='string', length=20, label=T(u'IdPiloto'),comment='xxx'),\n\tdb.Field('Descripcion', type='string', length=8000, label=T(u'Descripcion'),comment='xxx'),\n\tdb.Field('NitEmpresa', type='string', length=20, label=T(u'NitEmpresa'),comment='xxx'),\n\tdb.Field('CostoProduccion', type='double', label=T(u'CostoProduccion'),comment='xxx'),\n\tdb.Field('Cantidad', type='text', length=3, label=T(u'Cantidad'),comment='xxx'),\n\tdb.Field('FechaSalidaProd', type='datetime', label=T(u'FechaSalidaProd'),comment='xxx'),\n\tdb.Field('EstadoSalidaProducto', type='string', length=1000, label=T(u'EstadoSalidaProducto'),comment='xxx'),\n\tdb.Field('FechaEntradaProd', type='datetime', label=T(u'FechaEntradaProd'),comment='xxx'),\n\tdb.Field('EstadoEntradaProducto', type='string', length=1000, label=T(u'EstadoEntradaProducto'),comment='xxx'),\n\tdb.Field('FechaPactadaEntrega', type='date', label=T(u'FechaPactadaEntrega'),comment='xxx')\n\t)\ndb.define_table('tbProveedores',\n\tdb.Field('IdProveedor', type='string', length=20, label=T(u'IdProveedor'),comment='xxx'),\n\tdb.Field('Empresa', type='string', length=30, label=T(u'Empresa'),comment='xxx'),\n\tdb.Field('Direccion', type='string', length=40, label=T(u'Direccion'),comment='xxx'),\n\tdb.Field('Telefono', type='string', length=20, label=T(u'Telefono'),comment='xxx'),\n\tdb.Field('IdContacto', type='string', length=15, label=T(u'IdContacto'),comment='xxx'),\n\tdb.Field('NombreContacto', type='string', length=40, label=T(u'NombreContacto'),comment='xxx'),\n\tdb.Field('Mail', type='string', length=40, label=T(u'Mail'),comment='xxx'),\n\tdb.Field('observacion', type='string', length=2000, label=T(u'observacion'),comment='xxx')\n\t)\ndb.define_table('tbRemisionesProdAlmacen',\n\tdb.Field('IdRemision', type='integer', label=T(u'IdRemision'),comment='xxx'),\n\tdb.Field('IdProducto', type='integer', label=T(u'IdProducto'),comment='xxx'),\n\tdb.Field('IdUbicacionOrigen', type='text', length=2, label=T(u'IdUbicacionOrigen'),comment='xxx'),\n\tdb.Field('Festringemision', type='datetime', label=T(u'Festringemision'),comment='xxx'),\n\tdb.Field('IdUbicacionDestino', type='text', length=2, label=T(u'IdUbicacionDestino'),comment='xxx'),\n\tdb.Field('idEmpleado', type='string', length=15, label=T(u'idEmpleado'),comment='xxx'),\n\tdb.Field('Cantidad', type='double', label=T(u'Cantidad'),comment='xxx')\n\t)\ndb.define_table('tbRemisiones_Almacenes',\n\tdb.Field('IdRemision', type='integer', label=T(u'IdRemision'),comment='xxx'),\n\tdb.Field('IdUbicacionOrigina', type='text', length=2, label=T(u'IdUbicacionOrigina'),comment='xxx'),\n\tdb.Field('IdUbicacionOrigen', type='text', length=2, label=T(u'IdUbicacionOrigen'),comment='xxx'),\n\tdb.Field('IdUbicacionDestino', type='text', length=2, label=T(u'IdUbicacionDestino'),comment='xxx'),\n\tdb.Field('IdEmpleado', type='string', length=15, label=T(u'IdEmpleado'),comment='xxx'),\n\tdb.Field('Fecha', type='date', label=T(u'Fecha'),comment='xxx'),\n\tdb.Field('Anulada', type='text', length=1, label=T(u'Anulada'),comment='xxx')\n\t)\ndb.define_table('tbTipoUbicacion',\n\tdb.Field('IdTipoUbicacion', type='text', length=1, label=T(u'IdTipoUbicacion'),comment='xxx'),\n\tdb.Field('NombreTipo', type='string', length=20, label=T(u'NombreTipo'),comment='xxx'),\n\tdb.Field('Descripcion', type='string', length=3000, label=T(u'Descripcion'),comment='xxx')\n\t)\ndb.define_table('tbTurnoEmpleado',\n\tdb.Field('IdTurno', type='text', length=2, label=T(u'IdTurno'),comment='xxx'),\n\tdb.Field('Nombre', type='string', length=40, label=T(u'Nombre'),comment='xxx'),\n\tdb.Field('Hora_Entrada', type='datetime', label=T(u'Hora_Entrada'),comment='xxx'),\n\tdb.Field('Hora_Salida', type='datetime', label=T(u'Hora_Salida'),comment='xxx'),\n\tdb.Field('Hora_Entrada_Sabados', type='datetime', label=T(u'Hora_Entrada_Sabados'),comment='xxx'),\n\tdb.Field('Hora_Salida_Sabados', type='datetime', label=T(u'Hora_Salida_Sabados'),comment='xxx'),\n\tdb.Field('Hora_Entrada_Domingos', type='datetime', label=T(u'Hora_Entrada_Domingos'),comment='xxx'),\n\tdb.Field('Hora_Salida_Domingos', type='datetime', label=T(u'Hora_Salida_Domingos'),comment='xxx'),\n\tdb.Field('Domingo', type='text', length=1, label=T(u'Domingo'),comment='xxx'),\n\tdb.Field('Lunes', type='text', length=1, label=T(u'Lunes'),comment='xxx'),\n\tdb.Field('Mates', type='text', length=1, label=T(u'Mates'),comment='xxx'),\n\tdb.Field('Miercoles', type='text', length=1, label=T(u'Miercoles'),comment='xxx'),\n\tdb.Field('Jueves', type='text', length=1, label=T(u'Jueves'),comment='xxx'),\n\tdb.Field('Viernes', type='text', length=1, label=T(u'Viernes'),comment='xxx'),\n\tdb.Field('Sabado', type='text', length=1, label=T(u'Sabado'),comment='xxx')\n\t)\ndb.define_table('tbUbicacionBodegaAlmacen',\n\tdb.Field('IdUbicacion', type='text', length=2, label=T(u'IdUbicacion'),comment='xxx'),\n\tdb.Field('NombreUbicacion', type='string', length=40, label=T(u'NombreUbicacion'),comment='xxx'),\n\tdb.Field('IdTipoUbicacion', type='text', length=1, label=T(u'IdTipoUbicacion'),comment='xxx'),\n\tdb.Field('Direccion', type='string', length=40, label=T(u'Direccion'),comment='xxx'),\n\tdb.Field('Telefono', type='string', length=20, label=T(u'Telefono'),comment='xxx')\n\t)\ndb.define_table('tbUbicacionProductosBA',\n\tdb.Field('IdProducto', type='double', label=T(u'IdProducto'),comment='xxx'),\n\tdb.Field('IdUbicacion', type='text', length=2, label=T(u'IdUbicacion'),comment='xxx'),\n\tdb.Field('CantidadDisponible', type='double', label=T(u'CantidadDisponible'),comment='xxx'),\n\tdb.Field('CantidadRequerida', type='double', label=T(u'CantidadRequerida'),comment='xxx')\n\t)\ndb.define_table('tbUsuarios',\n\tdb.Field('IdUsuarios', type='string', length=15, label=T(u'IdUsuarios'),comment='xxx'),\n\tdb.Field('Usuario', type='string', length=20, label=T(u'Usuario'),comment='xxx'),\n\tdb.Field('Clave', type='string', length=15, label=T(u'Clave'),comment='xxx'),\n\tdb.Field('Tipo', type='string', length=15, label=T(u'Tipo'),comment='xxx')\n\t)\ndb.define_table('tbVales_Prestamos_Remisiones',\n\tdb.Field('IdVales_Prestamos', type='text', length=10, label=T(u'IdVales_Prestamos'),comment='xxx'),\n\tdb.Field('NitEmpresa', type='string', length=20, label=T(u'NitEmpresa'),comment='xxx'),\n\tdb.Field('IdEmpleado', type='string', length=15, label=T(u'IdEmpleado'),comment='xxx'),\n\tdb.Field('IdUbicacion', type='text', length=2, label=T(u'IdUbicacion'),comment='xxx'),\n\tdb.Field('PrecioTotal', type='double', label=T(u'PrecioTotal'),comment='xxx'),\n\tdb.Field('TotalIva', type='double', label=T(u'TotalIva'),comment='xxx'),\n\tdb.Field('FechaPrestamo', type='datetime', label=T(u'FechaPrestamo'),comment='xxx'),\n\tdb.Field('Estado', type='text', length=1, label=T(u'Estado'),comment='xxx'),\n\tdb.Field('Tipo', type='text', length=1, label=T(u'Tipo'),comment='xxx'),\n\tdb.Field('Observacion', type='string', length=8000, label=T(u'Observacion'),comment='xxx')\n\t)\ndb.define_table('tbVentas',\n\tdb.Field('IdVenta', type='integer', label=T(u'IdVenta'),comment='xxx'),\n\tdb.Field('IdUbicacion', type='text', length=2, label=T(u'IdUbicacion'),comment='xxx'),\n\tdb.Field('NitEmpresa', type='string', length=20, label=T(u'NitEmpresa'),comment='xxx'),\n\tdb.Field('TotalVenta', type='double', label=T(u'TotalVenta'),comment='xxx'),\n\tdb.Field('TotalIva', type='double', label=T(u'TotalIva'),comment='xxx'),\n\tdb.Field('IdEmpleado', type='string', length=15, label=T(u'IdEmpleado'),comment='xxx'),\n\tdb.Field('Fecha', type='date', label=T(u'Fecha'),comment='xxx'),\n\tdb.Field('Hora', type='datetime', label=T(u'Hora'),comment='xxx'),\n\tdb.Field('NoCuotas', type='text', length=2, label=T(u'NoCuotas'),comment='xxx'),\n\tdb.Field('FechaVence', type='date', label=T(u'FechaVence'),comment='xxx'),\n\tdb.Field('Pagada', type='text', length=1, label=T(u'Pagada'),comment='xxx'),\n\tdb.Field('Anulada', type='text', length=1, label=T(u'Anulada'),comment='xxx'),\n\tdb.Field('Observacion', type='string', length=1000, label=T(u'Observacion'),comment='xxx')\n\t)\ndb.define_table('tbconfigura',\n\tdb.Field('idempresa', type='integer', label=T(u'Cod\xc3\xadgo Empresa'),comment='xxx'),\n\tdb.Field('IdUbicacion', length=2,  label=T(u'Ubicacion'),comment='xxx', db.tbUbicacionBodegaAlmacen)\n    db.tbconfigura.IdUbicacion.requires = IS_IN_DB(db, 'tbUbicacionBodegaAlmacen.id', '%(IdUbicacion)s',zero=T('Elige uno'))\n\t)\n"
p7
sS'snapshot'
p8
(dp9
S'exception'
p10
(dp11
S'__getslice__'
p12
S"<method-wrapper '__getslice__' of exceptions.SyntaxError object>"
p13
sS'text'
p14
S'"    db.tbconfigura.IdUbicacion.requires = IS_IN_...acen.id\', \'%(IdUbicacion)s\',zero=T(\'Elige uno\'))\\n"'
p15
sS'__str__'
p16
S"<method-wrapper '__str__' of exceptions.SyntaxError object>"
p17
sS'__reduce__'
p18
S'<built-in method __reduce__ of exceptions.SyntaxError object>'
p19
sS'__dict__'
p20
S'{}'
p21
sS'__sizeof__'
p22
S'<built-in method __sizeof__ of exceptions.SyntaxError object>'
p23
sS'__init__'
p24
S"<method-wrapper '__init__' of exceptions.SyntaxError object>"
p25
sS'__setattr__'
p26
S"<method-wrapper '__setattr__' of exceptions.SyntaxError object>"
p27
sS'__reduce_ex__'
p28
S'<built-in method __reduce_ex__ of exceptions.SyntaxError object>'
p29
sS'__new__'
p30
S'<built-in method __new__ of type object>'
p31
sS'__format__'
p32
S'<built-in method __format__ of exceptions.SyntaxError object>'
p33
sS'__class__'
p34
S"<type 'exceptions.SyntaxError'>"
p35
sS'filename'
p36
S"r'C:\\Users\\1229601\\Documents\\web2py\\applications\\ascli\\models\\dbascli.py'"
p37
sS'lineno'
p38
S'463'
p39
sS'msg'
p40
S"'invalid syntax'"
p41
sS'__doc__'
p42
S"'Invalid syntax.'"
p43
sS'__getitem__'
p44
S"<method-wrapper '__getitem__' of exceptions.SyntaxError object>"
p45
sS'__setstate__'
p46
S'<built-in method __setstate__ of exceptions.SyntaxError object>'
p47
sS'__getattribute__'
p48
S"<method-wrapper '__getattribute__' of exceptions.SyntaxError object>"
p49
sS'print_file_and_line'
p50
S'None'
p51
sS'args'
p52
S'(\'invalid syntax\', (r\'C:\\Users\\1229601\\Documents\\web2py\\applications\\ascli\\models\\dbascli.py\', 463, 6, "    db.tbconfigura.IdUbicacion.requires = IS_IN_...acen.id\', \'%(IdUbicacion)s\',zero=T(\'Elige uno\'))\\n"))'
p53
sS'__subclasshook__'
p54
S'<built-in method __subclasshook__ of type object>'
p55
sS'offset'
p56
S'6'
sS'__unicode__'
p57
S'<built-in method __unicode__ of exceptions.SyntaxError object>'
p58
sS'__delattr__'
p59
S"<method-wrapper '__delattr__' of exceptions.SyntaxError object>"
p60
sS'__repr__'
p61
S"<method-wrapper '__repr__' of exceptions.SyntaxError object>"
p62
sS'__hash__'
p63
S"<method-wrapper '__hash__' of exceptions.SyntaxError object>"
p64
ssS'evalue'
p65
S'invalid syntax (dbascli.py, line 463)'
p66
sS'request'
p67
cgluon.html
XML_unpickle
p68
(S's\xf2_\x00\x00<div><table><tr><td style="font-weight:bold;vertical-align:top;">ajax</td><td style="vertical-align:top;">:</td><td><div>True</div></td></tr><tr><td style="font-weight:bold;vertical-align:top;">application</td><td style="vertical-align:top;">:</td><td><div>ascli</div></td></tr><tr><td style="font-weight:bold;vertical-align:top;">args</td><td style="vertical-align:top;">:</td><td><div><table></table></div></td></tr><tr><td style="font-weight:bold;vertical-align:top;">cid</td><td style="vertical-align:top;">:</td><td><div>c185255261342</div></td></tr><tr><td style="font-weight:bold;vertical-align:top;">client</td><td style="vertical-align:top;">:</td><td><div>127.0.0.1</div></td></tr><tr><td style="font-weight:bold;vertical-align:top;">controller</td><td style="vertical-align:top;">:</td><td><div>appadmin</div></td></tr><tr><td style="font-weight:bold;vertical-align:top;">cookies</td><td style="vertical-align:top;">:</td><td><div><table><tr><td style="font-weight:bold;vertical-align:top;">session_id_admin</td><td style="vertical-align:top;">:</td><td><div>127.0.0.1-98ae030e-8486-4be5-9dde-2ffb30b07df8<table><tr><td style="font-weight:bold;vertical-align:top;">comment</td><td style="vertical-align:top;">:</td><td><div></div></td></tr><tr><td style="font-weight:bold;vertical-align:top;">domain</td><td style="vertical-align:top;">:</td><td><div></div></td></tr><tr><td style="font-weight:bold;vertical-align:top;">expires</td><td style="vertical-align:top;">:</td><td><div></div></td></tr><tr><td style="font-weight:bold;vertical-align:top;">httponly</td><td style="vertical-align:top;">:</td><td><div></div></td></tr><tr><td style="font-weight:bold;vertical-align:top;">max-age</td><td style="vertical-align:top;">:</td><td><div></div></td></tr><tr><td style="font-weight:bold;vertical-align:top;">path</td><td style="vertical-align:top;">:</td><td><div></div></td></tr><tr><td style="font-weight:bold;vertical-align:top;">secure</td><td style="vertical-align:top;">:</td><td><div></div></td></tr><tr><td style="font-weight:bold;vertical-align:top;">version</td><td style="vertical-align:top;">:</td><td><div></div></td></tr></table></div></td></tr><tr><td style="font-weight:bold;vertical-align:top;">session_id_ascli</td><td style="vertical-align:top;">:</td><td><div>127.0.0.1-f87e9289-2fb9-4d12-94e9-487485898de6<table><tr><td style="font-weight:bold;vertical-align:top;">comment</td><td style="vertical-align:top;">:</td><td><div></div></td></tr><tr><td style="font-weight:bold;vertical-align:top;">domain</td><td style="vertical-align:top;">:</td><td><div></div></td></tr><tr><td style="font-weight:bold;vertical-align:top;">expires</td><td style="vertical-align:top;">:</td><td><div></div></td></tr><tr><td style="font-weight:bold;vertical-align:top;">httponly</td><td style="vertical-align:top;">:</td><td><div></div></td></tr><tr><td style="font-weight:bold;vertical-align:top;">max-age</td><td style="vertical-align:top;">:</td><td><div></div></td></tr><tr><td style="font-weight:bold;vertical-align:top;">path</td><td style="vertical-align:top;">:</td><td><div></div></td></tr><tr><td style="font-weight:bold;vertical-align:top;">secure</td><td style="vertical-align:top;">:</td><td><div></div></td></tr><tr><td style="font-weight:bold;vertical-align:top;">version</td><td style="vertical-align:top;">:</td><td><div></div></td></tr></table></div></td></tr><tr><td style="font-weight:bold;vertical-align:top;">session_id_welcome</td><td style="vertical-align:top;">:</td><td><div>127.0.0.1-5cb939aa-139f-46ab-842c-3e60b6f863d7<table><tr><td style="font-weight:bold;vertical-align:top;">comment</td><td style="vertical-align:top;">:</td><td><div></div></td></tr><tr><td style="font-weight:bold;vertical-align:top;">domain</td><td style="vertical-align:top;">:</td><td><div></div></td></tr><tr><td style="font-weight:bold;vertical-align:top;">expires</td><td style="vertical-align:top;">:</td><td><div></div></td></tr><tr><td style="font-weight:bold;vertical-align:top;">httponly</td><td style="vertical-align:top;">:</td><td><div></div></td></tr><tr><td style="font-weight:bold;vertical-align:top;">max-age</td><td style="vertical-align:top;">:</td><td><div></div></td></tr><tr><td style="font-weight:bold;vertical-align:top;">path</td><td style="vertical-align:top;">:</td><td><div></div></td></tr><tr><td style="font-weight:bold;vertical-align:top;">secure</td><td style="vertical-align:top;">:</td><td><div></div></td></tr><tr><td style="font-weight:bold;vertical-align:top;">version</td><td style="vertical-align:top;">:</td><td><div></div></td></tr></table></div></td></tr></table></div></td></tr><tr><td style="font-weight:bold;vertical-align:top;">env</td><td style="vertical-align:top;">:</td><td><div><table><tr><td style="font-weight:bold;vertical-align:top;">HTTP_ACCEPT</td><td style="vertical-align:top;">:</td><td><div>*/*</div></td></tr><tr><td style="font-weight:bold;vertical-align:top;">HTTP_ACCEPT_ENCODING</td><td style="vertical-align:top;">:</td><td><div>gzip, deflate, sdch</div></td></tr><tr><td style="font-weight:bold;vertical-align:top;">HTTP_ACCEPT_LANGUAGE</td><td style="vertical-align:top;">:</td><td><div>es-419,es;q=0.8,en-US;q=0.6,en;q=0.4</div></td></tr><tr><td style="font-weight:bold;vertical-align:top;">HTTP_CONNECTION</td><td style="vertical-align:top;">:</td><td><div>keep-alive</div></td></tr><tr><td style="font-weight:bold;vertical-align:top;">HTTP_COOKIE</td><td style="vertical-align:top;">:</td><td><div>session_id_welcome=127.0.0.1-5cb939aa-139f-46ab-842c-3e60b6f863d7; session_id_ascli=127.0.0.1-f87e9289-2fb9-4d12-94e9-487485898de6; session_id_admin=127.0.0.1-98ae030e-8486-4be5-9dde-2ffb30b07df8</div></td></tr><tr><td style="font-weight:bold;vertical-align:top;">HTTP_HOST</td><td style="vertical-align:top;">:</td><td><div>127.0.0.1:8000</div></td></tr><tr><td style="font-weight:bold;vertical-align:top;">HTTP_REFERER</td><td style="vertical-align:top;">:</td><td><div>http://127.0.0.1:8000/admin/default/edit/ascli/controllers/ventas.py?id=controllers__ventas__py</div></td></tr><tr><td style="font-weight:bold;vertical-align:top;">HTTP_USER_AGENT</td><td style="vertical-align:top;">:</td><td><div>Mozilla/5.0 (Windows NT 6.1; WOW64) AppleWebKit/537.36 (KHTML, like Gecko) Chrome/52.0.2743.116 Safari/537.36</div></td></tr><tr><td style="font-weight:bold;vertical-align:top;">HTTP_WEB2PY_COMPONENT_ELEMENT</td><td style="vertical-align:top;">:</td><td><div>c185255261342</div></td></tr><tr><td style="font-weight:bold;vertical-align:top;">HTTP_WEB2PY_COMPONENT_LOCATION</td><td style="vertical-align:top;">:</td><td><div>http://127.0.0.1:8000/admin/default/edit/ascli/controllers/ventas.py?id=controllers__ventas__py</div></td></tr><tr><td style="font-weight:bold;vertical-align:top;">HTTP_X_REQUESTED_WITH</td><td style="vertical-align:top;">:</td><td><div>XMLHttpRequest</div></td></tr><tr><td style="font-weight:bold;vertical-align:top;">PATH_INFO</td><td style="vertical-align:top;">:</td><td><div>/ascli/appadmin/hooks</div></td></tr><tr><td style="font-weight:bold;vertical-align:top;">QUERY_STRING</td><td style="vertical-align:top;">:</td><td><div></div></td></tr><tr><td style="font-weight:bold;vertical-align:top;">REMOTE_ADDR</td><td style="vertical-align:top;">:</td><td><div>127.0.0.1</div></td></tr><tr><td style="font-weight:bold;vertical-align:top;">REMOTE_PORT</td><td style="vertical-align:top;">:</td><td><div>52845</div></td></tr><tr><td style="font-weight:bold;vertical-align:top;">REQUEST_METHOD</td><td style="vertical-align:top;">:</td><td><div>GET</div></td></tr><tr><td style="font-weight:bold;vertical-align:top;">SCRIPT_NAME</td><td style="vertical-align:top;">:</td><td><div></div></td></tr><tr><td style="font-weight:bold;vertical-align:top;">SERVER_NAME</td><td style="vertical-align:top;">:</td><td><div>50HW002798</div></td></tr><tr><td style="font-weight:bold;vertical-align:top;">SERVER_PORT</td><td style="vertical-align:top;">:</td><td><div>8000</div></td></tr><tr><td style="font-weight:bold;vertical-align:top;">SERVER_PROTOCOL</td><td style="vertical-align:top;">:</td><td><div>HTTP/1.1</div></td></tr><tr><td style="font-weight:bold;vertical-align:top;">SERVER_SOFTWARE</td><td style="vertical-align:top;">:</td><td><div>Rocket 1.2.6</div></td></tr><tr><td style="font-weight:bold;vertical-align:top;">app_folders</td><td style="vertical-align:top;">:</td><td><div>set([&#x27;C:\\\\Users\\\\1229601\\\\Documents\\\\web2py\\\\applications\\\\welcome\\\\&#x27;, &#x27;C:\\\\Users\\\\1229601\\\\Documents\\\\web2py\\\\applications\\\\admin\\\\&#x27;, &#x27;C:\\\\Users\\\\1229601\\\\Documents\\\\web2py\\\\applications\\\\ascli\\\\&#x27;])</div></td></tr><tr><td style="font-weight:bold;vertical-align:top;">applications_parent</td><td style="vertical-align:top;">:</td><td><div>C:\\Users\\1229601\\Documents\\web2py</div></td></tr><tr><td style="font-weight:bold;vertical-align:top;">cmd_args</td><td style="vertical-align:top;">:</td><td><div><table></table></div></td></tr><tr><td style="font-weight:bold;vertical-align:top;">cmd_options</td><td style="vertical-align:top;">:</td><td><div>&lt;Values at 0x33a3fd0: {&#x27;verbose&#x27;: False, &#x27;ip&#x27;: &#x27;127.0.0.1&#x27;, &#x27;debuglevel&#x27;: 30, &#x27;with_scheduler&#x27;: False, &#x27;shutdown_timeout&#x27;: 5, &#x27;taskbar&#x27;: False, &#x27;with_coverage&#x27;: False, &#x27;pid_filename&#x27;: &#x27;httpserver.pid&#x27;, &#x27;maxthreads&#x27;: None, &#x27;softcron&#x27;: False, &#x27;server_name&#x27;: &#x27;50HW002798&#x27;, &#x27;bpython&#x27;: False, &#x27;nogui&#x27;: False, &#x27;port&#x27;: 8000, &#x27;print_errors&#x27;: False, &#x27;extcron&#x27;: False, &#x27;runcron&#x27;: False, &#x27;run_system_tests&#x27;: False, &#x27;test&#x27;: None, &#x27;folder&#x27;: &#x27;C:\\\\Users\\\\1229601\\\\Documents\\\\web2py&#x27;, &#x27;config&#x27;: &#x27;&#x27;, &#x27;minthreads&#x27;: None, &#x27;shell&#x27;: None, &#x27;run&#x27;: &#x27;&#x27;, &#x27;log_filename&#x27;: &#x27;httpserver.log&#x27;, &#x27;profiler_dir&#x27;: None, &#x27;args&#x27;: [&#x27;&#x27;], &#x27;socket_timeout&#x27;: 5, &#x27;ssl_ca_certificate&#x27;: None, &#x27;scheduler&#x27;: None, &#x27;interfaces&#x27;: None, &#x27;ssl_private_key&#x27;: &#x27;&#x27;, &#x27;gae&#x27;: None, &#x27;password&#x27;: &#x27;******&#x27;, &#x27;request_queue_size&#x27;: 5, &#x27;ssl_certificate&#x27;: &#x27;&#x27;, &#x27;cronjob&#x27;: False, &#x27;numthreads&#x27;: None, &#x27;quiet&#x27;: False, &#x27;import_models&#x27;: False, &#x27;timeout&#x27;: 10, &#x27;plain&#x27;: False, &#x27;nobanner&#x27;: False}&gt;</div></td></tr><tr><td style="font-weight:bold;vertical-align:top;">db_sessions</td><td style="vertical-align:top;">:</td><td><div>set([])</div></td></tr><tr><td style="font-weight:bold;vertical-align:top;">debugging</td><td style="vertical-align:top;">:</td><td><div>True</div></td></tr><tr><td style="font-weight:bold;vertical-align:top;">gluon_parent</td><td style="vertical-align:top;">:</td><td><div>C:\\Users\\1229601\\Documents\\web2py</div></td></tr><tr><td style="font-weight:bold;vertical-align:top;">http_accept</td><td style="vertical-align:top;">:</td><td><div>*/*</div></td></tr><tr><td style="font-weight:bold;vertical-align:top;">http_accept_encoding</td><td style="vertical-align:top;">:</td><td><div>gzip, deflate, sdch</div></td></tr><tr><td style="font-weight:bold;vertical-align:top;">http_accept_language</td><td style="vertical-align:top;">:</td><td><div>es-419,es;q=0.8,en-US;q=0.6,en;q=0.4</div></td></tr><tr><td style="font-weight:bold;vertical-align:top;">http_connection</td><td style="vertical-align:top;">:</td><td><div>keep-alive</div></td></tr><tr><td style="font-weight:bold;vertical-align:top;">http_cookie</td><td style="vertical-align:top;">:</td><td><div>session_id_welcome=127.0.0.1-5cb939aa-139f-46ab-842c-3e60b6f863d7; session_id_ascli=127.0.0.1-f87e9289-2fb9-4d12-94e9-487485898de6; session_id_admin=127.0.0.1-98ae030e-8486-4be5-9dde-2ffb30b07df8</div></td></tr><tr><td style="font-weight:bold;vertical-align:top;">http_host</td><td style="vertical-align:top;">:</td><td><div>127.0.0.1:8000</div></td></tr><tr><td style="font-weight:bold;vertical-align:top;">http_referer</td><td style="vertical-align:top;">:</td><td><div>http://127.0.0.1:8000/admin/default/edit/ascli/controllers/ventas.py?id=controllers__ventas__py</div></td></tr><tr><td style="font-weight:bold;vertical-align:top;">http_user_agent</td><td style="vertical-align:top;">:</td><td><div>Mozilla/5.0 (Windows NT 6.1; WOW64) AppleWebKit/537.36 (KHTML, like Gecko) Chrome/52.0.2743.116 Safari/537.36</div></td></tr><tr><td style="font-weight:bold;vertical-align:top;">http_web2py_component_element</td><td style="vertical-align:top;">:</td><td><div>c185255261342</div></td></tr><tr><td style="font-weight:bold;vertical-align:top;">http_web2py_component_location</td><td style="vertical-align:top;">:</td><td><div>http://127.0.0.1:8000/admin/default/edit/ascli/controllers/ventas.py?id=controllers__ventas__py</div></td></tr><tr><td style="font-weight:bold;vertical-align:top;">http_x_requested_with</td><td style="vertical-align:top;">:</td><td><div>XMLHttpRequest</div></td></tr><tr><td style="font-weight:bold;vertical-align:top;">is_jython</td><td style="vertical-align:top;">:</td><td><div>False</div></td></tr><tr><td style="font-weight:bold;vertical-align:top;">is_pypy</td><td style="vertical-align:top;">:</td><td><div>False</div></td></tr><tr><td style="font-weight:bold;vertical-align:top;">is_source</td><td style="vertical-align:top;">:</td><td><div>False</div></td></tr><tr><td style="font-weight:bold;vertical-align:top;">local_hosts</td><td style="vertical-align:top;">:</td><td><div><table><tr><td><div>50HW002798</div></td></tr><tr><td><div>172.17.80.18</div></td></tr><tr><td><div>::ffff:127.0.0.1</div></td></tr><tr><td><div>::1</div></td></tr><tr><td><div>fe80::2c50:c355:c8ac:3190%13</div></td></tr><tr><td><div>50HW002798.SOAM.TCS.com</div></td></tr><tr><td><div>127.0.0.1</div></td></tr></table></div></td></tr><tr><td style="font-weight:bold;vertical-align:top;">path_info</td><td style="vertical-align:top;">:</td><td><div>/ascli/appadmin/hooks</div></td></tr><tr><td style="font-weight:bold;vertical-align:top;">query_string</td><td style="vertical-align:top;">:</td><td><div></div></td></tr><tr><td style="font-weight:bold;vertical-align:top;">remote_addr</td><td style="vertical-align:top;">:</td><td><div>127.0.0.1</div></td></tr><tr><td style="font-weight:bold;vertical-align:top;">remote_port</td><td style="vertical-align:top;">:</td><td><div>52845</div></td></tr><tr><td style="font-weight:bold;vertical-align:top;">request_method</td><td style="vertical-align:top;">:</td><td><div>GET</div></td></tr><tr><td style="font-weight:bold;vertical-align:top;">request_uri</td><td style="vertical-align:top;">:</td><td><div>/ascli/appadmin/hooks</div></td></tr><tr><td style="font-weight:bold;vertical-align:top;">script_name</td><td style="vertical-align:top;">:</td><td><div></div></td></tr><tr><td style="font-weight:bold;vertical-align:top;">server_name</td><td style="vertical-align:top;">:</td><td><div>50HW002798</div></td></tr><tr><td style="font-weight:bold;vertical-align:top;">server_port</td><td style="vertical-align:top;">:</td><td><div>8000</div></td></tr><tr><td style="font-weight:bold;vertical-align:top;">server_protocol</td><td style="vertical-align:top;">:</td><td><div>HTTP/1.1</div></td></tr><tr><td style="font-weight:bold;vertical-align:top;">server_software</td><td style="vertical-align:top;">:</td><td><div>Rocket 1.2.6</div></td></tr><tr><td style="font-weight:bold;vertical-align:top;">web2py_path</td><td style="vertical-align:top;">:</td><td><div>C:\\Users\\1229601\\Documents\\web2py</div></td></tr><tr><td style="font-weight:bold;vertical-align:top;">web2py_version</td><td style="vertical-align:top;">:</td><td><div>2.14.6-stable+timestamp.2016.05.10.00.21.47</div></td></tr><tr><td style="font-weight:bold;vertical-align:top;">wsgi.errors</td><td style="vertical-align:top;">:</td><td><div>&lt;open file &#x27;&lt;stderr&gt;&#x27;, mode &#x27;w&#x27; at 0x006DD0D0&gt;</div></td></tr><tr><td style="font-weight:bold;vertical-align:top;">wsgi.file_wrapper</td><td style="vertical-align:top;">:</td><td><div>&lt;class wsgiref.util.FileWrapper at 0x03334308&gt;</div></td></tr><tr><td style="font-weight:bold;vertical-align:top;">wsgi.input</td><td style="vertical-align:top;">:</td><td><div>&lt;socket._fileobject object at 0x085919B0&gt;</div></td></tr><tr><td style="font-weight:bold;vertical-align:top;">wsgi.multiprocess</td><td style="vertical-align:top;">:</td><td><div>False</div></td></tr><tr><td style="font-weight:bold;vertical-align:top;">wsgi.multithread</td><td style="vertical-align:top;">:</td><td><div>True</div></td></tr><tr><td style="font-weight:bold;vertical-align:top;">wsgi.run_once</td><td style="vertical-align:top;">:</td><td><div>False</div></td></tr><tr><td style="font-weight:bold;vertical-align:top;">wsgi.url_scheme</td><td style="vertical-align:top;">:</td><td><div>http</div></td></tr><tr><td style="font-weight:bold;vertical-align:top;">wsgi.version</td><td style="vertical-align:top;">:</td><td><div><table><tr><td><div>1</div></td></tr><tr><td><div>0</div></td></tr></table></div></td></tr><tr><td style="font-weight:bold;vertical-align:top;">wsgi_errors</td><td style="vertical-align:top;">:</td><td><div>&lt;open file &#x27;&lt;stderr&gt;&#x27;, mode &#x27;w&#x27; at 0x006DD0D0&gt;</div></td></tr><tr><td style="font-weight:bold;vertical-align:top;">wsgi_file_wrapper</td><td style="vertical-align:top;">:</td><td><div>&lt;class wsgiref.util.FileWrapper at 0x03334308&gt;</div></td></tr><tr><td style="font-weight:bold;vertical-align:top;">wsgi_input</td><td style="vertical-align:top;">:</td><td><div>&lt;socket._fileobject object at 0x085919B0&gt;</div></td></tr><tr><td style="font-weight:bold;vertical-align:top;">wsgi_multiprocess</td><td style="vertical-align:top;">:</td><td><div>False</div></td></tr><tr><td style="font-weight:bold;vertical-align:top;">wsgi_multithread</td><td style="vertical-align:top;">:</td><td><div>True</div></td></tr><tr><td style="font-weight:bold;vertical-align:top;">wsgi_run_once</td><td style="vertical-align:top;">:</td><td><div>False</div></td></tr><tr><td style="font-weight:bold;vertical-align:top;">wsgi_url_scheme</td><td style="vertical-align:top;">:</td><td><div>http</div></td></tr><tr><td style="font-weight:bold;vertical-align:top;">wsgi_version</td><td style="vertical-align:top;">:</td><td><div><table><tr><td><div>1</div></td></tr><tr><td><div>0</div></td></tr></table></div></td></tr></table></div></td></tr><tr><td style="font-weight:bold;vertical-align:top;">extension</td><td style="vertical-align:top;">:</td><td><div>html</div></td></tr><tr><td style="font-weight:bold;vertical-align:top;">folder</td><td style="vertical-align:top;">:</td><td><div>C:\\Users\\1229601\\Documents\\web2py\\applications\\ascli\\</div></td></tr><tr><td style="font-weight:bold;vertical-align:top;">function</td><td style="vertical-align:top;">:</td><td><div>hooks</div></td></tr><tr><td style="font-weight:bold;vertical-align:top;">global_settings</td><td style="vertical-align:top;">:</td><td><div><table><tr><td style="font-weight:bold;vertical-align:top;">app_folders</td><td style="vertical-align:top;">:</td><td><div>set([&#x27;C:\\\\Users\\\\1229601\\\\Documents\\\\web2py\\\\applications\\\\welcome\\\\&#x27;, &#x27;C:\\\\Users\\\\1229601\\\\Documents\\\\web2py\\\\applications\\\\admin\\\\&#x27;, &#x27;C:\\\\Users\\\\1229601\\\\Documents\\\\web2py\\\\applications\\\\ascli\\\\&#x27;])</div></td></tr><tr><td style="font-weight:bold;vertical-align:top;">applications_parent</td><td style="vertical-align:top;">:</td><td><div>C:\\Users\\1229601\\Documents\\web2py</div></td></tr><tr><td style="font-weight:bold;vertical-align:top;">cmd_args</td><td style="vertical-align:top;">:</td><td><div><table></table></div></td></tr><tr><td style="font-weight:bold;vertical-align:top;">cmd_options</td><td style="vertical-align:top;">:</td><td><div>&lt;Values at 0x33a3fd0: {&#x27;verbose&#x27;: False, &#x27;ip&#x27;: &#x27;127.0.0.1&#x27;, &#x27;debuglevel&#x27;: 30, &#x27;with_scheduler&#x27;: False, &#x27;shutdown_timeout&#x27;: 5, &#x27;taskbar&#x27;: False, &#x27;with_coverage&#x27;: False, &#x27;pid_filename&#x27;: &#x27;httpserver.pid&#x27;, &#x27;maxthreads&#x27;: None, &#x27;softcron&#x27;: False, &#x27;server_name&#x27;: &#x27;50HW002798&#x27;, &#x27;bpython&#x27;: False, &#x27;nogui&#x27;: False, &#x27;port&#x27;: 8000, &#x27;print_errors&#x27;: False, &#x27;extcron&#x27;: False, &#x27;runcron&#x27;: False, &#x27;run_system_tests&#x27;: False, &#x27;test&#x27;: None, &#x27;folder&#x27;: &#x27;C:\\\\Users\\\\1229601\\\\Documents\\\\web2py&#x27;, &#x27;config&#x27;: &#x27;&#x27;, &#x27;minthreads&#x27;: None, &#x27;shell&#x27;: None, &#x27;run&#x27;: &#x27;&#x27;, &#x27;log_filename&#x27;: &#x27;httpserver.log&#x27;, &#x27;profiler_dir&#x27;: None, &#x27;args&#x27;: [&#x27;&#x27;], &#x27;socket_timeout&#x27;: 5, &#x27;ssl_ca_certificate&#x27;: None, &#x27;scheduler&#x27;: None, &#x27;interfaces&#x27;: None, &#x27;ssl_private_key&#x27;: &#x27;&#x27;, &#x27;gae&#x27;: None, &#x27;password&#x27;: &#x27;******&#x27;, &#x27;request_queue_size&#x27;: 5, &#x27;ssl_certificate&#x27;: &#x27;&#x27;, &#x27;cronjob&#x27;: False, &#x27;numthreads&#x27;: None, &#x27;quiet&#x27;: False, &#x27;import_models&#x27;: False, &#x27;timeout&#x27;: 10, &#x27;plain&#x27;: False, &#x27;nobanner&#x27;: False}&gt;</div></td></tr><tr><td style="font-weight:bold;vertical-align:top;">db_sessions</td><td style="vertical-align:top;">:</td><td><div>set([])</div></td></tr><tr><td style="font-weight:bold;vertical-align:top;">debugging</td><td style="vertical-align:top;">:</td><td><div>True</div></td></tr><tr><td style="font-weight:bold;vertical-align:top;">gluon_parent</td><td style="vertical-align:top;">:</td><td><div>C:\\Users\\1229601\\Documents\\web2py</div></td></tr><tr><td style="font-weight:bold;vertical-align:top;">is_jython</td><td style="vertical-align:top;">:</td><td><div>False</div></td></tr><tr><td style="font-weight:bold;vertical-align:top;">is_pypy</td><td style="vertical-align:top;">:</td><td><div>False</div></td></tr><tr><td style="font-weight:bold;vertical-align:top;">is_source</td><td style="vertical-align:top;">:</td><td><div>False</div></td></tr><tr><td style="font-weight:bold;vertical-align:top;">local_hosts</td><td style="vertical-align:top;">:</td><td><div><table><tr><td><div>50HW002798</div></td></tr><tr><td><div>172.17.80.18</div></td></tr><tr><td><div>::ffff:127.0.0.1</div></td></tr><tr><td><div>::1</div></td></tr><tr><td><div>fe80::2c50:c355:c8ac:3190%13</div></td></tr><tr><td><div>50HW002798.SOAM.TCS.com</div></td></tr><tr><td><div>127.0.0.1</div></td></tr></table></div></td></tr><tr><td style="font-weight:bold;vertical-align:top;">web2py_version</td><td style="vertical-align:top;">:</td><td><div>2.14.6-stable+timestamp.2016.05.10.00.21.47</div></td></tr></table></div></td></tr><tr><td style="font-weight:bold;vertical-align:top;">is_https</td><td style="vertical-align:top;">:</td><td><div>False</div></td></tr><tr><td style="font-weight:bold;vertical-align:top;">is_local</td><td style="vertical-align:top;">:</td><td><div>True</div></td></tr><tr><td style="font-weight:bold;vertical-align:top;">is_restful</td><td style="vertical-align:top;">:</td><td><div>False</div></td></tr><tr><td style="font-weight:bold;vertical-align:top;">is_scheduler</td><td style="vertical-align:top;">:</td><td><div>False</div></td></tr><tr><td style="font-weight:bold;vertical-align:top;">is_shell</td><td style="vertical-align:top;">:</td><td><div>False</div></td></tr><tr><td style="font-weight:bold;vertical-align:top;">now</td><td style="vertical-align:top;">:</td><td><div>datetime.datetime(2016, 9, 22, 11, 19, 14, 760000)</div></td></tr><tr><td style="font-weight:bold;vertical-align:top;">raw_args</td><td style="vertical-align:top;">:</td><td><div></div></td></tr><tr><td style="font-weight:bold;vertical-align:top;">raw_extension</td><td style="vertical-align:top;">:</td><td><div>None</div></td></tr><tr><td style="font-weight:bold;vertical-align:top;">url</td><td style="vertical-align:top;">:</td><td><div>/ascli/appadmin/hooks</div></td></tr><tr><td style="font-weight:bold;vertical-align:top;">utcnow</td><td style="vertical-align:top;">:</td><td><div>datetime.datetime(2016, 9, 22, 16, 19, 14, 760000)</div></td></tr><tr><td style="font-weight:bold;vertical-align:top;">wsgi</td><td style="vertical-align:top;">:</td><td><div>&lt;gluon.main.LazyWSGI object at 0x08393450&gt;</div></td></tr></table></div>'
tRp69
sS'frames'
p70
(lp71
(dp72
S'file'
p73
S'C:\\Users\\1229601\\Documents\\web2py\\gluon\\restricted.py'
p74
sS'dump'
p75
(dp76
S'code'
p77
S'"# -*- coding: utf-8 -*-\\ndb.define_table(\'TbAbono...n.id\', \'%(IdUbicacion)s\',zero=T(\'Elige uno\'))\\n\\t)\\n"'
p78
sS'layer'
p79
S"r'C:\\Users\\1229601\\Documents\\web2py\\applications\\ascli\\models\\dbascli.py'"
p80
sS'global compile2'
p81
S'<function compile2>'
p82
sS'ccode'
p83
S'undefined'
p84
ssS'lnum'
p85
I226
sS'lines'
p86
(dp87
I224
S'            ccode = code'
p88
sI225
S'        else:'
p89
sI226
S'            ccode = compile2(code, layer)'
p90
sI227
S'        exec ccode in environment'
p91
sI228
S'    except HTTP:'
p92
sI229
S'        raise'
p93
sI230
S'    except RestrictedError:'
p94
sI221
S"    environment['__name__'] = '__restricted__'"
p95
sI222
S'    try:'
p96
sI223
S'        if isinstance(code, types.CodeType):'
p97
ssS'call'
p98
S'(code="# -*- coding: utf-8 -*-\\ndb.define_table(\'TbAbono...n.id\', \'%(IdUbicacion)s\',zero=T(\'Elige uno\'))\\n\\t)\\n", environment={\'A\': <class \'gluon.html.A\'>, \'ANY_OF\': <class \'gluon.validators.ANY_OF\'>, \'ASSIGNJS\': <function ASSIGNJS>, \'AppConfig\': <function AppConfig>, \'Auth\': <class \'gluon.tools.Auth\'>, \'B\': <class \'gluon.html.B\'>, \'BEAUTIFY\': <class \'gluon.html.BEAUTIFY\'>, \'BODY\': <class \'gluon.html.BODY\'>, \'BR\': <class \'gluon.html.BR\'>, \'BUTTON\': <class \'gluon.html.BUTTON\'>, ...}, layer=r\'C:\\Users\\1229601\\Documents\\web2py\\applications\\ascli\\models\\dbascli.py\')'
p99
sS'func'
p100
S'restricted'
p101
sa(dp102
g73
S'C:\\Users\\1229601\\Documents\\web2py\\gluon\\restricted.py'
p103
sg75
(dp104
S'builtincompile'
p105
S'<built-in function compile>'
p106
sS'code'
p107
S'"# -*- coding: utf-8 -*-\\ndb.define_table(\'TbAbono...n.id\', \'%(IdUbicacion)s\',zero=T(\'Elige uno\'))\\n\\t)\\n"'
p108
sS'code.rstrip'
p109
S'<built-in method rstrip of str object>'
p110
sS').replace'
p111
g84
sS'layer'
p112
S"r'C:\\Users\\1229601\\Documents\\web2py\\applications\\ascli\\models\\dbascli.py'"
p113
ssg85
I209
sg86
(dp114
I204
S'def compile2(code, layer):'
p115
sI205
S'    """'
p116
sI206
S"    The ``+'\\\\n'`` is necessary else compile fails when code ends in a comment."
p117
sI207
S'    """'
p118
sI208
S''
sI209
S"    return compile(code.rstrip().replace('\\r\\n', '\\n') + '\\n', layer, 'exec')"
p119
sI210
S''
sI211
S''
sI212
S"def restricted(code, environment=None, layer='Unknown'):"
p120
sI213
S'    """'
p121
ssg98
S'(code="# -*- coding: utf-8 -*-\\ndb.define_table(\'TbAbono...n.id\', \'%(IdUbicacion)s\',zero=T(\'Elige uno\'))\\n\\t)\\n", layer=r\'C:\\Users\\1229601\\Documents\\web2py\\applications\\ascli\\models\\dbascli.py\')'
p122
sg100
S'compile2'
p123
sasS'pyver'
p124
S'Python 2.7.9: C:\\Users\\1229601\\Documents\\web2py\\web2py.exe (prefix: C:\\Python27)'
p125
sS'session'
p126
g68
(S's\x1a\x00\x00\x00<div><table></table></div>'
tRp127
sS'etype'
p128
S"<type 'exceptions.SyntaxError'>"
p129
sS'date'
p130
S'Thu Sep 22 11:19:14 2016'
p131
sS'response'
p132
g68
(S'sy\x17\x00\x00<div><table><tr><td style="font-weight:bold;vertical-align:top;">body</td><td style="vertical-align:top;">:</td><td><div>&lt;cStringIO.StringO object at 0x041899E0&gt;</div></td></tr><tr><td style="font-weight:bold;vertical-align:top;">cookies</td><td style="vertical-align:top;">:</td><td><div><table><tr><td style="font-weight:bold;vertical-align:top;">session_id_ascli</td><td style="vertical-align:top;">:</td><td><div>127.0.0.1-f87e9289-2fb9-4d12-94e9-487485898de6<table><tr><td style="font-weight:bold;vertical-align:top;">comment</td><td style="vertical-align:top;">:</td><td><div></div></td></tr><tr><td style="font-weight:bold;vertical-align:top;">domain</td><td style="vertical-align:top;">:</td><td><div></div></td></tr><tr><td style="font-weight:bold;vertical-align:top;">expires</td><td style="vertical-align:top;">:</td><td><div></div></td></tr><tr><td style="font-weight:bold;vertical-align:top;">httponly</td><td style="vertical-align:top;">:</td><td><div></div></td></tr><tr><td style="font-weight:bold;vertical-align:top;">max-age</td><td style="vertical-align:top;">:</td><td><div></div></td></tr><tr><td style="font-weight:bold;vertical-align:top;">path</td><td style="vertical-align:top;">:</td><td><div>/</div></td></tr><tr><td style="font-weight:bold;vertical-align:top;">secure</td><td style="vertical-align:top;">:</td><td><div></div></td></tr><tr><td style="font-weight:bold;vertical-align:top;">version</td><td style="vertical-align:top;">:</td><td><div></div></td></tr></table></div></td></tr></table></div></td></tr><tr><td style="font-weight:bold;vertical-align:top;">delimiters</td><td style="vertical-align:top;">:</td><td><div><table><tr><td><div>{{</div></td></tr><tr><td><div>}}</div></td></tr></table></div></td></tr><tr><td style="font-weight:bold;vertical-align:top;">files</td><td style="vertical-align:top;">:</td><td><div><table></table></div></td></tr><tr><td style="font-weight:bold;vertical-align:top;">flash</td><td style="vertical-align:top;">:</td><td><div></div></td></tr><tr><td style="font-weight:bold;vertical-align:top;">form_label_separator</td><td style="vertical-align:top;">:</td><td><div></div></td></tr><tr><td style="font-weight:bold;vertical-align:top;">formstyle</td><td style="vertical-align:top;">:</td><td><div>bootstrap3_inline</div></td></tr><tr><td style="font-weight:bold;vertical-align:top;">generic_patterns</td><td style="vertical-align:top;">:</td><td><div><table><tr><td><div>*</div></td></tr></table></div></td></tr><tr><td style="font-weight:bold;vertical-align:top;">headers</td><td style="vertical-align:top;">:</td><td><div><table><tr><td style="font-weight:bold;vertical-align:top;">X-Powered-By</td><td style="vertical-align:top;">:</td><td><div>web2py</div></td></tr></table></div></td></tr><tr><td style="font-weight:bold;vertical-align:top;">menu</td><td style="vertical-align:top;">:</td><td><div><table></table></div></td></tr><tr><td style="font-weight:bold;vertical-align:top;">meta</td><td style="vertical-align:top;">:</td><td><div><table></table></div></td></tr><tr><td style="font-weight:bold;vertical-align:top;">models_to_run</td><td style="vertical-align:top;">:</td><td><div><table><tr><td><div>^\\w+\\.py$</div></td></tr><tr><td><div>^appadmin/\\w+\\.py$</div></td></tr><tr><td><div>^appadmin/hooks/\\w+\\.py$</div></td></tr></table></div></td></tr><tr><td style="font-weight:bold;vertical-align:top;">postprocessing</td><td style="vertical-align:top;">:</td><td><div><table></table></div></td></tr><tr><td style="font-weight:bold;vertical-align:top;">session_client</td><td style="vertical-align:top;">:</td><td><div>127.0.0.1</div></td></tr><tr><td style="font-weight:bold;vertical-align:top;">session_cookie_compression_level</td><td style="vertical-align:top;">:</td><td><div>None</div></td></tr><tr><td style="font-weight:bold;vertical-align:top;">session_cookie_expires</td><td style="vertical-align:top;">:</td><td><div>None</div></td></tr><tr><td style="font-weight:bold;vertical-align:top;">session_data_name</td><td style="vertical-align:top;">:</td><td><div>session_data_ascli</div></td></tr><tr><td style="font-weight:bold;vertical-align:top;">session_file</td><td style="vertical-align:top;">:</td><td><div>&lt;open file &#x27;C:\\\\Users\\\\1229601\\\\Documents\\\\web2py\\\\applications\\\\ascli\\\\sessions\\\\1fe\\\\0d5\\\\127.0.0.1-f87e9289-2fb9-4d12-94e9-487485898de6&#x27;, mode &#x27;rb+&#x27; at 0x08580E38&gt;</div></td></tr><tr><td style="font-weight:bold;vertical-align:top;">session_filename</td><td style="vertical-align:top;">:</td><td><div>C:\\Users\\1229601\\Documents\\web2py\\applications\\ascli\\sessions\\127.0.0.1-f87e9289-2fb9-4d12-94e9-487485898de6</div></td></tr><tr><td style="font-weight:bold;vertical-align:top;">session_hash</td><td style="vertical-align:top;">:</td><td><div>b2aaacf208b1a65a291c016e129f3d1c</div></td></tr><tr><td style="font-weight:bold;vertical-align:top;">session_id</td><td style="vertical-align:top;">:</td><td><div>127.0.0.1-f87e9289-2fb9-4d12-94e9-487485898de6</div></td></tr><tr><td style="font-weight:bold;vertical-align:top;">session_id_name</td><td style="vertical-align:top;">:</td><td><div>session_id_ascli</div></td></tr><tr><td style="font-weight:bold;vertical-align:top;">session_locked</td><td style="vertical-align:top;">:</td><td><div>True</div></td></tr><tr><td style="font-weight:bold;vertical-align:top;">session_masterapp</td><td style="vertical-align:top;">:</td><td><div>ascli</div></td></tr><tr><td style="font-weight:bold;vertical-align:top;">session_new</td><td style="vertical-align:top;">:</td><td><div>False</div></td></tr><tr><td style="font-weight:bold;vertical-align:top;">session_storage_type</td><td style="vertical-align:top;">:</td><td><div>file</div></td></tr><tr><td style="font-weight:bold;vertical-align:top;">status</td><td style="vertical-align:top;">:</td><td><div>200</div></td></tr><tr><td style="font-weight:bold;vertical-align:top;">view</td><td style="vertical-align:top;">:</td><td><div>appadmin/hooks.html</div></td></tr></table></div>'
tRp133
sS'locals'
p134
(dp135
g4
S"r'C:\\Users\\1229601\\Documents\\web2py\\applications\\ascli\\models\\dbascli.py'"
p136
sg6
S'"# -*- coding: utf-8 -*-\\ndb.define_table(\'TbAbono...n.id\', \'%(IdUbicacion)s\',zero=T(\'Elige uno\'))\\n\\t)\\n"'
p137
sssS'traceback'
p138
S'Traceback (most recent call last):\n  File "C:\\Users\\1229601\\Documents\\web2py\\gluon\\restricted.py", line 226, in restricted\n    ccode = compile2(code, layer)\n  File "C:\\Users\\1229601\\Documents\\web2py\\gluon\\restricted.py", line 209, in compile2\n    return compile(code.rstrip().replace(\'\\r\\n\', \'\\n\') + \'\\n\', layer, \'exec\')\n  File "C:\\Users\\1229601\\Documents\\web2py\\applications\\ascli\\models\\dbascli.py", line 463\n    db.tbconfigura.IdUbicacion.requires = IS_IN_DB(db, \'tbUbicacionBodegaAlmacen.id\', \'%(IdUbicacion)s\',zero=T(\'Elige uno\'))\n     ^\nSyntaxError: invalid syntax\n'
p139
s.