(dp1
S'output'
p2
S"<type 'exceptions.TypeError'> float() argument must be a string or a number"
p3
sS'layer'
p4
S'C:\\web2py\\applications\\ascli\\controllers/person.py'
p5
sS'code'
p6
S'# -*- coding: utf-8 -*-\n# intente algo como\ndef index():\n    # Select all the records, to show how\n    # datatables.net paginates.\n    people=db(db.hijo).select()\n    return dict(results=people)\n\nresponse._vars=response._caller(index)\n'
p7
sS'snapshot'
p8
(dp9
S'exception'
p10
(dp11
S'__hash__'
p12
S"<method-wrapper '__hash__' of exceptions.TypeError object>"
p13
sS'__setattr__'
p14
S"<method-wrapper '__setattr__' of exceptions.TypeError object>"
p15
sS'__reduce_ex__'
p16
S'<built-in method __reduce_ex__ of exceptions.TypeError object>'
p17
sS'__getslice__'
p18
S"<method-wrapper '__getslice__' of exceptions.TypeError object>"
p19
sS'__getitem__'
p20
S"<method-wrapper '__getitem__' of exceptions.TypeError object>"
p21
sS'__setstate__'
p22
S'<built-in method __setstate__ of exceptions.TypeError object>'
p23
sS'__reduce__'
p24
S'<built-in method __reduce__ of exceptions.TypeError object>'
p25
sS'__str__'
p26
S"<method-wrapper '__str__' of exceptions.TypeError object>"
p27
sS'__format__'
p28
S'<built-in method __format__ of exceptions.TypeError object>'
p29
sS'__getattribute__'
p30
S"<method-wrapper '__getattribute__' of exceptions.TypeError object>"
p31
sS'__class__'
p32
S"<type 'exceptions.TypeError'>"
p33
sS'__unicode__'
p34
S'<built-in method __unicode__ of exceptions.TypeError object>'
p35
sS'__delattr__'
p36
S"<method-wrapper '__delattr__' of exceptions.TypeError object>"
p37
sS'__subclasshook__'
p38
S'<built-in method __subclasshook__ of type object>'
p39
sS'__repr__'
p40
S"<method-wrapper '__repr__' of exceptions.TypeError object>"
p41
sS'args'
p42
S"('float() argument must be a string or a number',)"
p43
sS'__dict__'
p44
S'{}'
p45
sS'__sizeof__'
p46
S'<built-in method __sizeof__ of exceptions.TypeError object>'
p47
sS'__doc__'
p48
S"'Inappropriate argument type.'"
p49
sS'__init__'
p50
S"<method-wrapper '__init__' of exceptions.TypeError object>"
p51
sS'__new__'
p52
S'<built-in method __new__ of type object>'
p53
ssS'evalue'
p54
S'float() argument must be a string or a number'
p55
sS'request'
p56
cgluon.html
XML_unpickle
p57
(S'sOZ\x00\x00<div><table><tr><td style="font-weight:bold;vertical-align:top;">ajax</td><td style="vertical-align:top;">:</td><td><div>False</div></td></tr><tr><td style="font-weight:bold;vertical-align:top;">application</td><td style="vertical-align:top;">:</td><td><div>ascli</div></td></tr><tr><td style="font-weight:bold;vertical-align:top;">args</td><td style="vertical-align:top;">:</td><td><div><table></table></div></td></tr><tr><td style="font-weight:bold;vertical-align:top;">cid</td><td style="vertical-align:top;">:</td><td><div>None</div></td></tr><tr><td style="font-weight:bold;vertical-align:top;">client</td><td style="vertical-align:top;">:</td><td><div>127.0.0.1</div></td></tr><tr><td style="font-weight:bold;vertical-align:top;">controller</td><td style="vertical-align:top;">:</td><td><div>person</div></td></tr><tr><td style="font-weight:bold;vertical-align:top;">cookies</td><td style="vertical-align:top;">:</td><td><div><table><tr><td style="font-weight:bold;vertical-align:top;">session_id_admin</td><td style="vertical-align:top;">:</td><td><div>127.0.0.1-5e228cff-4bd9-4cbb-80e9-92d3f3177566<table><tr><td style="font-weight:bold;vertical-align:top;">comment</td><td style="vertical-align:top;">:</td><td><div></div></td></tr><tr><td style="font-weight:bold;vertical-align:top;">domain</td><td style="vertical-align:top;">:</td><td><div></div></td></tr><tr><td style="font-weight:bold;vertical-align:top;">expires</td><td style="vertical-align:top;">:</td><td><div></div></td></tr><tr><td style="font-weight:bold;vertical-align:top;">httponly</td><td style="vertical-align:top;">:</td><td><div></div></td></tr><tr><td style="font-weight:bold;vertical-align:top;">max-age</td><td style="vertical-align:top;">:</td><td><div></div></td></tr><tr><td style="font-weight:bold;vertical-align:top;">path</td><td style="vertical-align:top;">:</td><td><div></div></td></tr><tr><td style="font-weight:bold;vertical-align:top;">secure</td><td style="vertical-align:top;">:</td><td><div></div></td></tr><tr><td style="font-weight:bold;vertical-align:top;">version</td><td style="vertical-align:top;">:</td><td><div></div></td></tr></table></div></td></tr><tr><td style="font-weight:bold;vertical-align:top;">session_id_ascli</td><td style="vertical-align:top;">:</td><td><div>127.0.0.1-fced61d4-8a15-47d5-a2f5-09fb048a33c0<table><tr><td style="font-weight:bold;vertical-align:top;">comment</td><td style="vertical-align:top;">:</td><td><div></div></td></tr><tr><td style="font-weight:bold;vertical-align:top;">domain</td><td style="vertical-align:top;">:</td><td><div></div></td></tr><tr><td style="font-weight:bold;vertical-align:top;">expires</td><td style="vertical-align:top;">:</td><td><div></div></td></tr><tr><td style="font-weight:bold;vertical-align:top;">httponly</td><td style="vertical-align:top;">:</td><td><div></div></td></tr><tr><td style="font-weight:bold;vertical-align:top;">max-age</td><td style="vertical-align:top;">:</td><td><div></div></td></tr><tr><td style="font-weight:bold;vertical-align:top;">path</td><td style="vertical-align:top;">:</td><td><div></div></td></tr><tr><td style="font-weight:bold;vertical-align:top;">secure</td><td style="vertical-align:top;">:</td><td><div></div></td></tr><tr><td style="font-weight:bold;vertical-align:top;">version</td><td style="vertical-align:top;">:</td><td><div></div></td></tr></table></div></td></tr><tr><td style="font-weight:bold;vertical-align:top;">session_id_welcome</td><td style="vertical-align:top;">:</td><td><div>127.0.0.1-4112b93e-84be-4ef1-9f45-1fc433e53e7d<table><tr><td style="font-weight:bold;vertical-align:top;">comment</td><td style="vertical-align:top;">:</td><td><div></div></td></tr><tr><td style="font-weight:bold;vertical-align:top;">domain</td><td style="vertical-align:top;">:</td><td><div></div></td></tr><tr><td style="font-weight:bold;vertical-align:top;">expires</td><td style="vertical-align:top;">:</td><td><div></div></td></tr><tr><td style="font-weight:bold;vertical-align:top;">httponly</td><td style="vertical-align:top;">:</td><td><div></div></td></tr><tr><td style="font-weight:bold;vertical-align:top;">max-age</td><td style="vertical-align:top;">:</td><td><div></div></td></tr><tr><td style="font-weight:bold;vertical-align:top;">path</td><td style="vertical-align:top;">:</td><td><div></div></td></tr><tr><td style="font-weight:bold;vertical-align:top;">secure</td><td style="vertical-align:top;">:</td><td><div></div></td></tr><tr><td style="font-weight:bold;vertical-align:top;">version</td><td style="vertical-align:top;">:</td><td><div></div></td></tr></table></div></td></tr></table></div></td></tr><tr><td style="font-weight:bold;vertical-align:top;">env</td><td style="vertical-align:top;">:</td><td><div><table><tr><td style="font-weight:bold;vertical-align:top;">HTTP_ACCEPT</td><td style="vertical-align:top;">:</td><td><div>text/html, application/xhtml+xml, image/jxr, */*</div></td></tr><tr><td style="font-weight:bold;vertical-align:top;">HTTP_ACCEPT_ENCODING</td><td style="vertical-align:top;">:</td><td><div>gzip, deflate</div></td></tr><tr><td style="font-weight:bold;vertical-align:top;">HTTP_ACCEPT_LANGUAGE</td><td style="vertical-align:top;">:</td><td><div>es-CO</div></td></tr><tr><td style="font-weight:bold;vertical-align:top;">HTTP_CONNECTION</td><td style="vertical-align:top;">:</td><td><div>Keep-Alive</div></td></tr><tr><td style="font-weight:bold;vertical-align:top;">HTTP_COOKIE</td><td style="vertical-align:top;">:</td><td><div>session_id_welcome=127.0.0.1-4112b93e-84be-4ef1-9f45-1fc433e53e7d; session_id_admin=127.0.0.1-5e228cff-4bd9-4cbb-80e9-92d3f3177566; session_id_ascli=127.0.0.1-fced61d4-8a15-47d5-a2f5-09fb048a33c0</div></td></tr><tr><td style="font-weight:bold;vertical-align:top;">HTTP_HOST</td><td style="vertical-align:top;">:</td><td><div>127.0.0.1:8000</div></td></tr><tr><td style="font-weight:bold;vertical-align:top;">HTTP_REFERER</td><td style="vertical-align:top;">:</td><td><div>http://127.0.0.1:8000/ascli/default/index</div></td></tr><tr><td style="font-weight:bold;vertical-align:top;">HTTP_USER_AGENT</td><td style="vertical-align:top;">:</td><td><div>Mozilla/5.0 (Windows NT 10.0; Win64; x64) AppleWebKit/537.36 (KHTML, like Gecko) Chrome/51.0.2704.79 Safari/537.36 Edge/14.14393</div></td></tr><tr><td style="font-weight:bold;vertical-align:top;">PATH_INFO</td><td style="vertical-align:top;">:</td><td><div>/ascli/person/index</div></td></tr><tr><td style="font-weight:bold;vertical-align:top;">QUERY_STRING</td><td style="vertical-align:top;">:</td><td><div></div></td></tr><tr><td style="font-weight:bold;vertical-align:top;">REMOTE_ADDR</td><td style="vertical-align:top;">:</td><td><div>127.0.0.1</div></td></tr><tr><td style="font-weight:bold;vertical-align:top;">REMOTE_PORT</td><td style="vertical-align:top;">:</td><td><div>50210</div></td></tr><tr><td style="font-weight:bold;vertical-align:top;">REQUEST_METHOD</td><td style="vertical-align:top;">:</td><td><div>GET</div></td></tr><tr><td style="font-weight:bold;vertical-align:top;">SCRIPT_NAME</td><td style="vertical-align:top;">:</td><td><div></div></td></tr><tr><td style="font-weight:bold;vertical-align:top;">SERVER_NAME</td><td style="vertical-align:top;">:</td><td><div>PCLUCHO</div></td></tr><tr><td style="font-weight:bold;vertical-align:top;">SERVER_PORT</td><td style="vertical-align:top;">:</td><td><div>8000</div></td></tr><tr><td style="font-weight:bold;vertical-align:top;">SERVER_PROTOCOL</td><td style="vertical-align:top;">:</td><td><div>HTTP/1.1</div></td></tr><tr><td style="font-weight:bold;vertical-align:top;">SERVER_SOFTWARE</td><td style="vertical-align:top;">:</td><td><div>Rocket 1.2.6</div></td></tr><tr><td style="font-weight:bold;vertical-align:top;">app_folders</td><td style="vertical-align:top;">:</td><td><div>set([&#x27;C:\\\\web2py\\\\applications\\\\ascli\\\\&#x27;, &#x27;C:\\\\web2py\\\\applications\\\\admin\\\\&#x27;, &#x27;C:\\\\web2py\\\\applications\\\\welcome\\\\&#x27;])</div></td></tr><tr><td style="font-weight:bold;vertical-align:top;">applications_parent</td><td style="vertical-align:top;">:</td><td><div>C:\\web2py</div></td></tr><tr><td style="font-weight:bold;vertical-align:top;">cmd_args</td><td style="vertical-align:top;">:</td><td><div><table></table></div></td></tr><tr><td style="font-weight:bold;vertical-align:top;">cmd_options</td><td style="vertical-align:top;">:</td><td><div>&lt;Values at 0x3012120: {&#x27;verbose&#x27;: False, &#x27;ip&#x27;: &#x27;127.0.0.1&#x27;, &#x27;debuglevel&#x27;: 30, &#x27;with_scheduler&#x27;: False, &#x27;shutdown_timeout&#x27;: 5, &#x27;taskbar&#x27;: False, &#x27;with_coverage&#x27;: False, &#x27;pid_filename&#x27;: &#x27;httpserver.pid&#x27;, &#x27;maxthreads&#x27;: None, &#x27;softcron&#x27;: False, &#x27;server_name&#x27;: &#x27;PCLUCHO&#x27;, &#x27;bpython&#x27;: False, &#x27;nogui&#x27;: False, &#x27;port&#x27;: 8000, &#x27;print_errors&#x27;: False, &#x27;extcron&#x27;: False, &#x27;runcron&#x27;: False, &#x27;run_system_tests&#x27;: False, &#x27;test&#x27;: None, &#x27;folder&#x27;: &#x27;C:\\\\web2py&#x27;, &#x27;config&#x27;: &#x27;&#x27;, &#x27;minthreads&#x27;: None, &#x27;shell&#x27;: None, &#x27;run&#x27;: &#x27;&#x27;, &#x27;log_filename&#x27;: &#x27;httpserver.log&#x27;, &#x27;profiler_dir&#x27;: None, &#x27;args&#x27;: [&#x27;&#x27;], &#x27;socket_timeout&#x27;: 5, &#x27;ssl_ca_certificate&#x27;: None, &#x27;scheduler&#x27;: None, &#x27;interfaces&#x27;: None, &#x27;ssl_private_key&#x27;: &#x27;&#x27;, &#x27;gae&#x27;: None, &#x27;password&#x27;: &#x27;******&#x27;, &#x27;request_queue_size&#x27;: 5, &#x27;ssl_certificate&#x27;: &#x27;&#x27;, &#x27;cronjob&#x27;: False, &#x27;numthreads&#x27;: None, &#x27;quiet&#x27;: False, &#x27;import_models&#x27;: False, &#x27;timeout&#x27;: 10, &#x27;plain&#x27;: False, &#x27;nobanner&#x27;: False}&gt;</div></td></tr><tr><td style="font-weight:bold;vertical-align:top;">db_sessions</td><td style="vertical-align:top;">:</td><td><div>set([])</div></td></tr><tr><td style="font-weight:bold;vertical-align:top;">debugging</td><td style="vertical-align:top;">:</td><td><div>True</div></td></tr><tr><td style="font-weight:bold;vertical-align:top;">gluon_parent</td><td style="vertical-align:top;">:</td><td><div>C:\\web2py</div></td></tr><tr><td style="font-weight:bold;vertical-align:top;">http_accept</td><td style="vertical-align:top;">:</td><td><div>text/html, application/xhtml+xml, image/jxr, */*</div></td></tr><tr><td style="font-weight:bold;vertical-align:top;">http_accept_encoding</td><td style="vertical-align:top;">:</td><td><div>gzip, deflate</div></td></tr><tr><td style="font-weight:bold;vertical-align:top;">http_accept_language</td><td style="vertical-align:top;">:</td><td><div>es-CO</div></td></tr><tr><td style="font-weight:bold;vertical-align:top;">http_connection</td><td style="vertical-align:top;">:</td><td><div>Keep-Alive</div></td></tr><tr><td style="font-weight:bold;vertical-align:top;">http_cookie</td><td style="vertical-align:top;">:</td><td><div>session_id_welcome=127.0.0.1-4112b93e-84be-4ef1-9f45-1fc433e53e7d; session_id_admin=127.0.0.1-5e228cff-4bd9-4cbb-80e9-92d3f3177566; session_id_ascli=127.0.0.1-fced61d4-8a15-47d5-a2f5-09fb048a33c0</div></td></tr><tr><td style="font-weight:bold;vertical-align:top;">http_host</td><td style="vertical-align:top;">:</td><td><div>127.0.0.1:8000</div></td></tr><tr><td style="font-weight:bold;vertical-align:top;">http_referer</td><td style="vertical-align:top;">:</td><td><div>http://127.0.0.1:8000/ascli/default/index</div></td></tr><tr><td style="font-weight:bold;vertical-align:top;">http_user_agent</td><td style="vertical-align:top;">:</td><td><div>Mozilla/5.0 (Windows NT 10.0; Win64; x64) AppleWebKit/537.36 (KHTML, like Gecko) Chrome/51.0.2704.79 Safari/537.36 Edge/14.14393</div></td></tr><tr><td style="font-weight:bold;vertical-align:top;">is_jython</td><td style="vertical-align:top;">:</td><td><div>False</div></td></tr><tr><td style="font-weight:bold;vertical-align:top;">is_pypy</td><td style="vertical-align:top;">:</td><td><div>False</div></td></tr><tr><td style="font-weight:bold;vertical-align:top;">is_source</td><td style="vertical-align:top;">:</td><td><div>False</div></td></tr><tr><td style="font-weight:bold;vertical-align:top;">local_hosts</td><td style="vertical-align:top;">:</td><td><div><table><tr><td><div>2001:0:9d38:90d7:1ce0:1a45:45a9:78e5</div></td></tr><tr><td><div>fe80::1ce0:1a45:45a9:78e5%11</div></td></tr><tr><td><div>fe80::ac57:9320:9586:f872%3</div></td></tr><tr><td><div>::ffff:127.0.0.1</div></td></tr><tr><td><div>::1</div></td></tr><tr><td><div>192.168.0.20</div></td></tr><tr><td><div>PCLUCHO</div></td></tr><tr><td><div>127.0.0.1</div></td></tr></table></div></td></tr><tr><td style="font-weight:bold;vertical-align:top;">path_info</td><td style="vertical-align:top;">:</td><td><div>/ascli/person/index</div></td></tr><tr><td style="font-weight:bold;vertical-align:top;">query_string</td><td style="vertical-align:top;">:</td><td><div></div></td></tr><tr><td style="font-weight:bold;vertical-align:top;">remote_addr</td><td style="vertical-align:top;">:</td><td><div>127.0.0.1</div></td></tr><tr><td style="font-weight:bold;vertical-align:top;">remote_port</td><td style="vertical-align:top;">:</td><td><div>50210</div></td></tr><tr><td style="font-weight:bold;vertical-align:top;">request_method</td><td style="vertical-align:top;">:</td><td><div>GET</div></td></tr><tr><td style="font-weight:bold;vertical-align:top;">request_uri</td><td style="vertical-align:top;">:</td><td><div>/ascli/person/index</div></td></tr><tr><td style="font-weight:bold;vertical-align:top;">script_name</td><td style="vertical-align:top;">:</td><td><div></div></td></tr><tr><td style="font-weight:bold;vertical-align:top;">server_name</td><td style="vertical-align:top;">:</td><td><div>PCLUCHO</div></td></tr><tr><td style="font-weight:bold;vertical-align:top;">server_port</td><td style="vertical-align:top;">:</td><td><div>8000</div></td></tr><tr><td style="font-weight:bold;vertical-align:top;">server_protocol</td><td style="vertical-align:top;">:</td><td><div>HTTP/1.1</div></td></tr><tr><td style="font-weight:bold;vertical-align:top;">server_software</td><td style="vertical-align:top;">:</td><td><div>Rocket 1.2.6</div></td></tr><tr><td style="font-weight:bold;vertical-align:top;">web2py_path</td><td style="vertical-align:top;">:</td><td><div>C:\\web2py</div></td></tr><tr><td style="font-weight:bold;vertical-align:top;">web2py_version</td><td style="vertical-align:top;">:</td><td><div>2.14.6-stable+timestamp.2016.05.10.00.21.47</div></td></tr><tr><td style="font-weight:bold;vertical-align:top;">wsgi.errors</td><td style="vertical-align:top;">:</td><td><div>&lt;open file &#x27;&lt;stderr&gt;&#x27;, mode &#x27;w&#x27; at 0x021AD0D0&gt;</div></td></tr><tr><td style="font-weight:bold;vertical-align:top;">wsgi.file_wrapper</td><td style="vertical-align:top;">:</td><td><div>&lt;class wsgiref.util.FileWrapper at 0x02F345A8&gt;</div></td></tr><tr><td style="font-weight:bold;vertical-align:top;">wsgi.input</td><td style="vertical-align:top;">:</td><td><div>&lt;socket._fileobject object at 0x03F04FB0&gt;</div></td></tr><tr><td style="font-weight:bold;vertical-align:top;">wsgi.multiprocess</td><td style="vertical-align:top;">:</td><td><div>False</div></td></tr><tr><td style="font-weight:bold;vertical-align:top;">wsgi.multithread</td><td style="vertical-align:top;">:</td><td><div>True</div></td></tr><tr><td style="font-weight:bold;vertical-align:top;">wsgi.run_once</td><td style="vertical-align:top;">:</td><td><div>False</div></td></tr><tr><td style="font-weight:bold;vertical-align:top;">wsgi.url_scheme</td><td style="vertical-align:top;">:</td><td><div>http</div></td></tr><tr><td style="font-weight:bold;vertical-align:top;">wsgi.version</td><td style="vertical-align:top;">:</td><td><div><table><tr><td><div>1</div></td></tr><tr><td><div>0</div></td></tr></table></div></td></tr><tr><td style="font-weight:bold;vertical-align:top;">wsgi_errors</td><td style="vertical-align:top;">:</td><td><div>&lt;open file &#x27;&lt;stderr&gt;&#x27;, mode &#x27;w&#x27; at 0x021AD0D0&gt;</div></td></tr><tr><td style="font-weight:bold;vertical-align:top;">wsgi_file_wrapper</td><td style="vertical-align:top;">:</td><td><div>&lt;class wsgiref.util.FileWrapper at 0x02F345A8&gt;</div></td></tr><tr><td style="font-weight:bold;vertical-align:top;">wsgi_input</td><td style="vertical-align:top;">:</td><td><div>&lt;socket._fileobject object at 0x03F04FB0&gt;</div></td></tr><tr><td style="font-weight:bold;vertical-align:top;">wsgi_multiprocess</td><td style="vertical-align:top;">:</td><td><div>False</div></td></tr><tr><td style="font-weight:bold;vertical-align:top;">wsgi_multithread</td><td style="vertical-align:top;">:</td><td><div>True</div></td></tr><tr><td style="font-weight:bold;vertical-align:top;">wsgi_run_once</td><td style="vertical-align:top;">:</td><td><div>False</div></td></tr><tr><td style="font-weight:bold;vertical-align:top;">wsgi_url_scheme</td><td style="vertical-align:top;">:</td><td><div>http</div></td></tr><tr><td style="font-weight:bold;vertical-align:top;">wsgi_version</td><td style="vertical-align:top;">:</td><td><div><table><tr><td><div>1</div></td></tr><tr><td><div>0</div></td></tr></table></div></td></tr></table></div></td></tr><tr><td style="font-weight:bold;vertical-align:top;">extension</td><td style="vertical-align:top;">:</td><td><div>html</div></td></tr><tr><td style="font-weight:bold;vertical-align:top;">folder</td><td style="vertical-align:top;">:</td><td><div>C:\\web2py\\applications\\ascli\\</div></td></tr><tr><td style="font-weight:bold;vertical-align:top;">function</td><td style="vertical-align:top;">:</td><td><div>index</div></td></tr><tr><td style="font-weight:bold;vertical-align:top;">global_settings</td><td style="vertical-align:top;">:</td><td><div><table><tr><td style="font-weight:bold;vertical-align:top;">app_folders</td><td style="vertical-align:top;">:</td><td><div>set([&#x27;C:\\\\web2py\\\\applications\\\\ascli\\\\&#x27;, &#x27;C:\\\\web2py\\\\applications\\\\admin\\\\&#x27;, &#x27;C:\\\\web2py\\\\applications\\\\welcome\\\\&#x27;])</div></td></tr><tr><td style="font-weight:bold;vertical-align:top;">applications_parent</td><td style="vertical-align:top;">:</td><td><div>C:\\web2py</div></td></tr><tr><td style="font-weight:bold;vertical-align:top;">cmd_args</td><td style="vertical-align:top;">:</td><td><div><table></table></div></td></tr><tr><td style="font-weight:bold;vertical-align:top;">cmd_options</td><td style="vertical-align:top;">:</td><td><div>&lt;Values at 0x3012120: {&#x27;verbose&#x27;: False, &#x27;ip&#x27;: &#x27;127.0.0.1&#x27;, &#x27;debuglevel&#x27;: 30, &#x27;with_scheduler&#x27;: False, &#x27;shutdown_timeout&#x27;: 5, &#x27;taskbar&#x27;: False, &#x27;with_coverage&#x27;: False, &#x27;pid_filename&#x27;: &#x27;httpserver.pid&#x27;, &#x27;maxthreads&#x27;: None, &#x27;softcron&#x27;: False, &#x27;server_name&#x27;: &#x27;PCLUCHO&#x27;, &#x27;bpython&#x27;: False, &#x27;nogui&#x27;: False, &#x27;port&#x27;: 8000, &#x27;print_errors&#x27;: False, &#x27;extcron&#x27;: False, &#x27;runcron&#x27;: False, &#x27;run_system_tests&#x27;: False, &#x27;test&#x27;: None, &#x27;folder&#x27;: &#x27;C:\\\\web2py&#x27;, &#x27;config&#x27;: &#x27;&#x27;, &#x27;minthreads&#x27;: None, &#x27;shell&#x27;: None, &#x27;run&#x27;: &#x27;&#x27;, &#x27;log_filename&#x27;: &#x27;httpserver.log&#x27;, &#x27;profiler_dir&#x27;: None, &#x27;args&#x27;: [&#x27;&#x27;], &#x27;socket_timeout&#x27;: 5, &#x27;ssl_ca_certificate&#x27;: None, &#x27;scheduler&#x27;: None, &#x27;interfaces&#x27;: None, &#x27;ssl_private_key&#x27;: &#x27;&#x27;, &#x27;gae&#x27;: None, &#x27;password&#x27;: &#x27;******&#x27;, &#x27;request_queue_size&#x27;: 5, &#x27;ssl_certificate&#x27;: &#x27;&#x27;, &#x27;cronjob&#x27;: False, &#x27;numthreads&#x27;: None, &#x27;quiet&#x27;: False, &#x27;import_models&#x27;: False, &#x27;timeout&#x27;: 10, &#x27;plain&#x27;: False, &#x27;nobanner&#x27;: False}&gt;</div></td></tr><tr><td style="font-weight:bold;vertical-align:top;">db_sessions</td><td style="vertical-align:top;">:</td><td><div>set([])</div></td></tr><tr><td style="font-weight:bold;vertical-align:top;">debugging</td><td style="vertical-align:top;">:</td><td><div>True</div></td></tr><tr><td style="font-weight:bold;vertical-align:top;">gluon_parent</td><td style="vertical-align:top;">:</td><td><div>C:\\web2py</div></td></tr><tr><td style="font-weight:bold;vertical-align:top;">is_jython</td><td style="vertical-align:top;">:</td><td><div>False</div></td></tr><tr><td style="font-weight:bold;vertical-align:top;">is_pypy</td><td style="vertical-align:top;">:</td><td><div>False</div></td></tr><tr><td style="font-weight:bold;vertical-align:top;">is_source</td><td style="vertical-align:top;">:</td><td><div>False</div></td></tr><tr><td style="font-weight:bold;vertical-align:top;">local_hosts</td><td style="vertical-align:top;">:</td><td><div><table><tr><td><div>2001:0:9d38:90d7:1ce0:1a45:45a9:78e5</div></td></tr><tr><td><div>fe80::1ce0:1a45:45a9:78e5%11</div></td></tr><tr><td><div>fe80::ac57:9320:9586:f872%3</div></td></tr><tr><td><div>::ffff:127.0.0.1</div></td></tr><tr><td><div>::1</div></td></tr><tr><td><div>192.168.0.20</div></td></tr><tr><td><div>PCLUCHO</div></td></tr><tr><td><div>127.0.0.1</div></td></tr></table></div></td></tr><tr><td style="font-weight:bold;vertical-align:top;">web2py_version</td><td style="vertical-align:top;">:</td><td><div>2.14.6-stable+timestamp.2016.05.10.00.21.47</div></td></tr></table></div></td></tr><tr><td style="font-weight:bold;vertical-align:top;">is_https</td><td style="vertical-align:top;">:</td><td><div>False</div></td></tr><tr><td style="font-weight:bold;vertical-align:top;">is_local</td><td style="vertical-align:top;">:</td><td><div>True</div></td></tr><tr><td style="font-weight:bold;vertical-align:top;">is_restful</td><td style="vertical-align:top;">:</td><td><div>False</div></td></tr><tr><td style="font-weight:bold;vertical-align:top;">is_scheduler</td><td style="vertical-align:top;">:</td><td><div>False</div></td></tr><tr><td style="font-weight:bold;vertical-align:top;">is_shell</td><td style="vertical-align:top;">:</td><td><div>False</div></td></tr><tr><td style="font-weight:bold;vertical-align:top;">now</td><td style="vertical-align:top;">:</td><td><div>datetime.datetime(2016, 8, 27, 8, 14, 43, 637000)</div></td></tr><tr><td style="font-weight:bold;vertical-align:top;">raw_args</td><td style="vertical-align:top;">:</td><td><div></div></td></tr><tr><td style="font-weight:bold;vertical-align:top;">raw_extension</td><td style="vertical-align:top;">:</td><td><div>None</div></td></tr><tr><td style="font-weight:bold;vertical-align:top;">url</td><td style="vertical-align:top;">:</td><td><div>/ascli/person/index</div></td></tr><tr><td style="font-weight:bold;vertical-align:top;">utcnow</td><td style="vertical-align:top;">:</td><td><div>datetime.datetime(2016, 8, 27, 13, 14, 43, 637000)</div></td></tr><tr><td style="font-weight:bold;vertical-align:top;">wsgi</td><td style="vertical-align:top;">:</td><td><div>&lt;gluon.main.LazyWSGI object at 0x049AD5B0&gt;</div></td></tr></table></div>'
tRp58
sS'frames'
p59
(lp60
(dp61
S'file'
p62
S'C:\\web2py\\gluon\\restricted.py'
p63
sS'dump'
p64
(dp65
S'environment'
p66
S"{'A': <class 'gluon.html.A'>, 'ANY_OF': <class 'gluon.validators.ANY_OF'>, 'ASSIGNJS': <function ASSIGNJS>, 'AppConfig': <function AppConfig>, 'Auth': <class 'gluon.tools.Auth'>, 'B': <class 'gluon.html.B'>, 'BEAUTIFY': <class 'gluon.html.BEAUTIFY'>, 'BODY': <class 'gluon.html.BODY'>, 'BR': <class 'gluon.html.BR'>, 'BUTTON': <class 'gluon.html.BUTTON'>, ...}"
p67
sS'ccode'
p68
S'<code object <module> at 0490EF98, file "C:\\web2...pplications\\ascli\\controllers/person.py", line 3>'
p69
ssS'lnum'
p70
I227
sS'lines'
p71
(dp72
I224
S'            ccode = code'
p73
sI225
S'        else:'
p74
sI226
S'            ccode = compile2(code, layer)'
p75
sI227
S'        exec ccode in environment'
p76
sI228
S'    except HTTP:'
p77
sI229
S'        raise'
p78
sI230
S'    except RestrictedError:'
p79
sI231
S'        # do not encapsulate (obfuscate) the original RestrictedError'
p80
sI222
S'    try:'
p81
sI223
S'        if isinstance(code, types.CodeType):'
p82
ssS'call'
p83
S"(code='# -*- coding: utf-8 -*-\\n# intente algo como\\ndef ...=people)\\n\\nresponse._vars=response._caller(index)\\n', environment={'A': <class 'gluon.html.A'>, 'ANY_OF': <class 'gluon.validators.ANY_OF'>, 'ASSIGNJS': <function ASSIGNJS>, 'AppConfig': <function AppConfig>, 'Auth': <class 'gluon.tools.Auth'>, 'B': <class 'gluon.html.B'>, 'BEAUTIFY': <class 'gluon.html.BEAUTIFY'>, 'BODY': <class 'gluon.html.BODY'>, 'BR': <class 'gluon.html.BR'>, 'BUTTON': <class 'gluon.html.BUTTON'>, ...}, layer=r'C:\\web2py\\applications\\ascli\\controllers/person.py')"
p84
sS'func'
p85
S'restricted'
p86
sa(dp87
g62
S'C:\\web2py\\applications\\ascli\\controllers\\person.py'
p88
sg64
(dp89
sg70
I9
sg71
(dp90
I1
S'# -*- coding: utf-8 -*-'
p91
sI2
S'# intente algo como'
p92
sI3
S'def index():'
p93
sI4
S'    # Select all the records, to show how'
p94
sI5
S'    # datatables.net paginates.'
p95
sI6
S'    people=db(db.hijo).select()'
p96
sI7
S'    return dict(results=people)'
p97
ssg83
S'()'
p98
sg85
S'<module>'
p99
sa(dp100
g62
S'C:\\web2py\\gluon\\globals.py'
p101
sg64
(dp102
S'self'
p103
S'undefined'
p104
sS'f'
S'<function index>'
p105
ssg70
I417
sg71
(dp106
I416
S'        self._vars = None'
p107
sI417
S'        self._caller = lambda f: f()'
p108
sI418
S'        self._view_environment = None'
p109
sI419
S'        self._custom_commit = None'
p110
sI420
S'        self._custom_rollback = None'
p111
sI421
S"        self.generic_patterns = ['*']"
p112
sI412
S"        self.flash = ''            # used by the default view layout"
p113
sI413
S'        self.meta = Storage()      # used by web2py_ajax.html'
p114
sI414
S'        self.menu = []             # used by the default view layout'
p115
sI415
S'        self.files = []            # used by web2py_ajax.html'
p116
ssg83
S'(f=<function index>)'
p117
sg85
S'<lambda>'
p118
sa(dp119
g62
S'C:\\web2py\\applications\\ascli\\controllers\\person.py'
p120
sg64
(dp121
S'global db'
p122
S'<DAL uri="sqlite://storage.sqlite">'
p123
sS'db.hijo'
p124
S'<Table hijo (id, nombre, peso, fecha_nacimiento, hora_nacimiento)>'
p125
sS').select'
p126
g104
sS'people'
p127
g104
ssg70
I6
sg71
(dp128
I1
S'# -*- coding: utf-8 -*-'
p129
sI2
S'# intente algo como'
p130
sI3
S'def index():'
p131
sI4
S'    # Select all the records, to show how'
p132
sI5
S'    # datatables.net paginates.'
p133
sI6
S'    people=db(db.hijo).select()'
p134
sI7
S'    return dict(results=people)'
p135
ssg83
S'()'
p136
sg85
S'index'
p137
sa(dp138
g62
S'C:\\web2py\\gluon\\packages\\dal\\pydal\\objects.py'
p139
sg64
(dp140
S'self.query'
p141
S'<Query (hijo.id IS NOT NULL)>'
p142
sS'adapter.select'
p143
S'<bound method SQLiteAdapter.select of <pydal.adapters.sqlite.SQLiteAdapter object>>'
p144
sS'fields'
p145
S'[<pydal.objects.Field object>, <pydal.objects.Field object>, <pydal.objects.Field object>, <pydal.objects.Field object>, <pydal.objects.Field object>]'
p146
sS'adapter'
p147
S'<pydal.adapters.sqlite.SQLiteAdapter object>'
p148
sS'attributes'
p149
g45
sS'self'
p150
S'<Set (hijo.id IS NOT NULL)>'
p151
ssg70
I2020
sg71
(dp152
I2016
S"                                    attributes.get('left', None),"
p153
sI2017
S"                                    attributes.get('orderby', None),"
p154
sI2018
S"                                    attributes.get('groupby', None))"
p155
sI2019
S'        fields = adapter.expand_all(fields, tablenames)'
p156
sI2020
S'        return adapter.select(self.query, fields, attributes)'
p157
sI2021
S''
sI2022
S'    def iterselect(self, *fields, **attributes):'
p158
sI2023
S'        adapter = self.db._adapter'
p159
sI2024
S'        tablenames = adapter.tables(self.query,'
p160
sI2015
S"                                    attributes.get('join', None),"
p161
ssg83
S'(self=<Set (hijo.id IS NOT NULL)>, *fields=[<pydal.objects.Field object>, <pydal.objects.Field object>, <pydal.objects.Field object>, <pydal.objects.Field object>, <pydal.objects.Field object>], **attributes={})'
p162
sg85
S'select'
p163
sa(dp164
g62
S'C:\\web2py\\gluon\\packages\\dal\\pydal\\adapters\\sqlite.py'
p165
sg64
(dp166
S'fields'
p167
S'[<pydal.objects.Field object>, <pydal.objects.Field object>, <pydal.objects.Field object>, <pydal.objects.Field object>, <pydal.objects.Field object>]'
p168
sS'self'
p169
S'<pydal.adapters.sqlite.SQLiteAdapter object>'
p170
sS').select'
p171
S'<bound method SQLiteAdapter.select of <pydal.adapters.sqlite.SQLiteAdapter object>>'
p172
sS'attributes'
p173
g45
sS'global SQLiteAdapter'
p174
S"<class 'pydal.adapters.sqlite.SQLiteAdapter'>"
p175
sS'query'
p176
S'<Query (hijo.id IS NOT NULL)>'
p177
sS'builtinsuper'
p178
S"<type 'super'>"
p179
ssg70
I123
sg71
(dp180
I118
S'        Note that the entire database, rather than one record, is locked'
p181
sI119
S'        (it will be locked eventually anyway by the following UPDATE).'
p182
sI120
S'        """'
p183
sI121
S"        if attributes.get('for_update', False) and not 'cache' in attributes:"
p184
sI122
S"            self.execute('BEGIN IMMEDIATE TRANSACTION;')"
p185
sI123
S'        return super(SQLiteAdapter, self).select(query, fields, attributes)'
p186
sI124
S''
sI125
S''
sI126
S'SPATIALLIBS = {'
p187
sI127
S"    'Windows':'mod_spatialite.dll',"
p188
ssg83
S'(self=<pydal.adapters.sqlite.SQLiteAdapter object>, query=<Query (hijo.id IS NOT NULL)>, fields=[<pydal.objects.Field object>, <pydal.objects.Field object>, <pydal.objects.Field object>, <pydal.objects.Field object>, <pydal.objects.Field object>], attributes={})'
p189
sg85
g163
sa(dp190
g62
S'C:\\web2py\\gluon\\packages\\dal\\pydal\\adapters\\base.py'
p191
sg64
(dp192
S'fields'
p193
S'[<pydal.objects.Field object>, <pydal.objects.Field object>, <pydal.objects.Field object>, <pydal.objects.Field object>, <pydal.objects.Field object>]'
p194
sS'self'
p195
S'<pydal.adapters.sqlite.SQLiteAdapter object>'
p196
sS'attributes'
p197
g45
sS'self._select_aux'
p198
S'<bound method SQLiteAdapter._select_aux of <pydal.adapters.sqlite.SQLiteAdapter object>>'
p199
sS'sql'
p200
S"'SELECT  hijo.id, hijo.nombre, hijo.peso, hijo.fe...nacimiento FROM hijo WHERE (hijo.id IS NOT NULL);'"
p201
ssg70
I1296
sg71
(dp202
I1291
S'            return cache_model('
p203
sI1292
S'                key,'
p204
sI1293
S'                lambda self=self,args=args:self._select_aux(*args),'
p205
sI1294
S'                time_expire)'
p206
sI1295
S'        else:'
p207
sI1296
S'            return self._select_aux(sql,fields,attributes)'
p208
sI1297
S''
sI1298
S'    def iterselect(self, query, fields, attributes):'
p209
sI1299
S'        sql = self._select(query, fields, attributes)'
p210
sI1300
S"        cacheable = attributes.get('cacheable', False)"
p211
ssg83
S'(self=<pydal.adapters.sqlite.SQLiteAdapter object>, query=<Query (hijo.id IS NOT NULL)>, fields=[<pydal.objects.Field object>, <pydal.objects.Field object>, <pydal.objects.Field object>, <pydal.objects.Field object>, <pydal.objects.Field object>], attributes={})'
p212
sg85
g163
sa(dp213
g62
S'C:\\web2py\\gluon\\packages\\dal\\pydal\\adapters\\base.py'
p214
sg64
(dp215
S'rows'
p216
S"[(1, u'1421', 100.0, datetime.date(2016, 8, 7), u'05:32:32'), (2, u'erwe', 4.0, datetime.date(2016, 8, 18), u'05:32:32')]"
p217
sS'fields'
p218
S'[<pydal.objects.Field object>, <pydal.objects.Field object>, <pydal.objects.Field object>, <pydal.objects.Field object>, <pydal.objects.Field object>]'
p219
sS'self'
p220
S'<pydal.adapters.sqlite.SQLiteAdapter object>'
p221
sS'cacheable'
p222
S'False'
p223
sS'self._colnames'
p224
S"['hijo.id', 'hijo.nombre', 'hijo.peso', 'hijo.fecha_nacimiento', 'hijo.hora_nacimiento']"
p225
sS'processor'
p226
S'<bound method SQLiteAdapter.parse of <pydal.adapters.sqlite.SQLiteAdapter object>>'
p227
ssg70
I1277
sg71
(dp228
I1280
S'        """'
p229
sI1281
S'        Always returns a Rows object, possibly empty.'
p230
sI1272
S'            rows = list(rows)'
p231
sI1273
S"        limitby = args_get('limitby', None) or (0,)"
p232
sI1274
S'        rows = self.rowslice(rows,limitby[0],None)'
p233
sI1275
S"        processor = args_get('processor', self.parse)"
p234
sI1276
S"        cacheable = args_get('cacheable',False)"
p235
sI1277
S'        return processor(rows,fields,self._colnames,cacheable=cacheable)'
p236
sI1278
S''
sI1279
S'    def select(self, query, fields, attributes):'
p237
ssg83
S"(self=<pydal.adapters.sqlite.SQLiteAdapter object>, sql='SELECT  hijo.id, hijo.nombre, hijo.peso, hijo.fe...nacimiento FROM hijo WHERE (hijo.id IS NOT NULL);', fields=[<pydal.objects.Field object>, <pydal.objects.Field object>, <pydal.objects.Field object>, <pydal.objects.Field object>, <pydal.objects.Field object>], attributes={})"
p238
sg85
S'_select_aux'
p239
sa(dp240
g62
S'C:\\web2py\\gluon\\packages\\dal\\pydal\\adapters\\base.py'
p241
sg64
(dp242
S'rows'
p243
S"[(1, u'1421', 100.0, datetime.date(2016, 8, 7), u'05:32:32'), (2, u'erwe', 4.0, datetime.date(2016, 8, 18), u'05:32:32')]"
p244
sS'row'
p245
S"(1, u'1421', 100.0, datetime.date(2016, 8, 7), u'05:32:32')"
p246
ssg70
I1767
sg71
(dp247
I1762
S''
sI1763
S'    def parse(self, rows, fields, colnames, blob_decode=True, cacheable=False):'
p248
sI1764
S'        (fields_virtual, fields_lazy, tmps) = self._parse_expand_colnames(colnames)'
p249
sI1765
S'        new_rows = [self._parse(row, tmps, fields, colnames, blob_decode,'
p250
sI1766
S'                                cacheable, fields_virtual, fields_lazy)'
p251
sI1767
S'                    for row in rows]'
p252
sI1768
S''
sI1769
S'        rowsobj = Rows(self.db, new_rows, colnames, rawrows=rows)'
p253
sI1770
S''
sI1771
S'        # Old stype virtual fields'
p254
ssg83
S"(self=<pydal.adapters.sqlite.SQLiteAdapter object>, rows=[(1, u'1421', 100.0, datetime.date(2016, 8, 7), u'05:32:32'), (2, u'erwe', 4.0, datetime.date(2016, 8, 18), u'05:32:32')], fields=[<pydal.objects.Field object>, <pydal.objects.Field object>, <pydal.objects.Field object>, <pydal.objects.Field object>, <pydal.objects.Field object>], colnames=['hijo.id', 'hijo.nombre', 'hijo.peso', 'hijo.fecha_nacimiento', 'hijo.hora_nacimiento'], blob_decode=True, cacheable=False)"
p255
sg85
S'parse'
p256
sa(dp257
g62
S'C:\\web2py\\gluon\\packages\\dal\\pydal\\adapters\\base.py'
p258
sg64
(dp259
S'blob_decode'
p260
S'True'
p261
sS'self'
p262
S'<pydal.adapters.sqlite.SQLiteAdapter object>'
p263
sS'ft'
p264
S"'double'"
p265
sS'value'
p266
S'datetime.date(2016, 8, 7)'
p267
sS'self.parse_value'
p268
S'<bound method SQLiteAdapter.parse_value of <pydal.adapters.sqlite.SQLiteAdapter object>>'
p269
ssg70
I1677
sg71
(dp270
I1672
S'                (tablename, fieldname, table, field, ft) = tmp'
p271
sI1673
S'                colset = new_row.get(tablename, None)'
p272
sI1674
S'                if colset is None:'
p273
sI1675
S'                    colset = new_row[tablename] = self.db.Row()'
p274
sI1676
S''
sI1677
S'                value = self.parse_value(value, ft, blob_decode)'
p275
sI1678
S'                if field.filter_out:'
p276
sI1679
S'                    value = field.filter_out(value)'
p277
sI1680
S'                colset[fieldname] = value'
p278
sI1681
S''
ssg83
S"(self=<pydal.adapters.sqlite.SQLiteAdapter object>, row=(1, u'1421', 100.0, datetime.date(2016, 8, 7), u'05:32:32'), tmps=[('hijo', 'id', <Table hijo (id, nombre, peso, fecha_nacimiento, hora_nacimiento)>, <pydal.objects.Field object>, 'id'), ('hijo', 'nombre', <Table hijo (id, nombre, peso, fecha_nacimiento, hora_nacimiento)>, <pydal.objects.Field object>, 'string'), ('hijo', 'peso', <Table hijo (id, nombre, peso, fecha_nacimiento, hora_nacimiento)>, <pydal.objects.Field object>, 'double'), ('hijo', 'fecha_nacimiento', <Table hijo (id, nombre, peso, fecha_nacimiento, hora_nacimiento)>, <pydal.objects.Field object>, 'double'), ('hijo', 'hora_nacimiento', <Table hijo (id, nombre, peso, fecha_nacimiento, hora_nacimiento)>, <pydal.objects.Field object>, 'double')], fields=[<pydal.objects.Field object>, <pydal.objects.Field object>, <pydal.objects.Field object>, <pydal.objects.Field object>, <pydal.objects.Field object>], colnames=['hijo.id', 'hijo.nombre', 'hijo.peso', 'hijo.fecha_nacimiento', 'hijo.hora_nacimiento'], blob_decode=True, cacheable=False, fields_virtual={'hijo': []}, fields_lazy={'hijo': []})"
p279
sg85
S'_parse'
p280
sa(dp281
g62
S'C:\\web2py\\gluon\\packages\\dal\\pydal\\adapters\\base.py'
p282
sg64
(dp283
S'field_type'
p284
S"'double'"
p285
sS'self'
p286
S'<pydal.adapters.sqlite.SQLiteAdapter object>'
p287
sS'self.parsemap'
p288
S"{'bigint': <bound method SQLiteAdapter.parse_integer of <pydal.adapters.sqlite.SQLiteAdapter object>>, 'blob': <bound method SQLiteAdapter.parse_blob of <pydal.adapters.sqlite.SQLiteAdapter object>>, 'boolean': <bound method SQLiteAdapter.parse_boolean of <pydal.adapters.sqlite.SQLiteAdapter object>>, 'date': <bound method SQLiteAdapter.parse_date of <pydal.adapters.sqlite.SQLiteAdapter object>>, 'datetime': <bound method SQLiteAdapter.parse_datetime of <pydal.adapters.sqlite.SQLiteAdapter object>>, 'decimal': <bound method SQLiteAdapter.parse_decimal of <pydal.adapters.sqlite.SQLiteAdapter object>>, 'double': <bound method SQLiteAdapter.parse_double of <pydal.adapters.sqlite.SQLiteAdapter object>>, 'float': <bound method SQLiteAdapter.parse_double of <pydal.adapters.sqlite.SQLiteAdapter object>>, 'id': <bound method SQLiteAdapter.parse_id of <pydal.adapters.sqlite.SQLiteAdapter object>>, 'integer': <bound method SQLiteAdapter.parse_integer of <pydal.adapters.sqlite.SQLiteAdapter object>>, ...}"
p289
sS'value'
p290
S'datetime.date(2016, 8, 7)'
p291
sS'key'
p292
S"'double'"
p293
ssg70
I1527
sg71
(dp294
I1522
S'            return value'
p295
sI1523
S"        elif field_type == 'blob' and not blob_decode:"
p296
sI1524
S'            return value'
p297
sI1525
S'        else:'
p298
sI1526
S'            key = REGEX_TYPE.match(field_type).group(0)'
p299
sI1527
S'            return self.parsemap[key](value,field_type)'
p300
sI1528
S''
sI1529
S'    def parse_reference(self, value, field_type):'
p301
sI1530
S'        referee = field_type[10:].strip()'
p302
sI1531
S"        if not '.' in referee:"
p303
ssg83
S"(self=<pydal.adapters.sqlite.SQLiteAdapter object>, value=datetime.date(2016, 8, 7), field_type='double', blob_decode=True)"
p304
sg85
S'parse_value'
p305
sa(dp306
g62
S'C:\\web2py\\gluon\\packages\\dal\\pydal\\adapters\\base.py'
p307
sg64
(dp308
S'builtinfloat'
p309
S"<type 'float'>"
p310
sS'value'
p311
S'datetime.date(2016, 8, 7)'
p312
ssg70
I1628
sg71
(dp313
I1632
S'            if not isinstance(value, basestring):'
p314
sI1623
S''
sI1624
S'    def parse_integer(self, value, field_type):'
p315
sI1625
S'        return long(value)'
p316
sI1626
S''
sI1627
S'    def parse_double(self, value, field_type):'
p317
sI1628
S'        return float(value)'
p318
sI1629
S''
sI1630
S'    def parse_json(self, value, field_type):'
p319
sI1631
S"        if 'loads' not in self.driver_auto_json:"
p320
ssg83
S"(self=<pydal.adapters.sqlite.SQLiteAdapter object>, value=datetime.date(2016, 8, 7), field_type='double')"
p321
sg85
S'parse_double'
p322
sasS'pyver'
p323
S'Python 2.7.9: C:\\web2py\\web2py.exe (prefix: C:\\Python27)'
p324
sS'session'
p325
g57
(S's\x1a\x00\x00\x00<div><table></table></div>'
tRp326
sS'etype'
p327
S"<type 'exceptions.TypeError'>"
p328
sS'date'
p329
S'Sat Aug 27 08:14:47 2016'
p330
sS'response'
p331
g57
(S's\x07*\x00\x00<div><table><tr><td style="font-weight:bold;vertical-align:top;">body</td><td style="vertical-align:top;">:</td><td><div>&lt;cStringIO.StringO object at 0x045235C0&gt;</div></td></tr><tr><td style="font-weight:bold;vertical-align:top;">cookies</td><td style="vertical-align:top;">:</td><td><div><table><tr><td style="font-weight:bold;vertical-align:top;">session_id_ascli</td><td style="vertical-align:top;">:</td><td><div>127.0.0.1-fced61d4-8a15-47d5-a2f5-09fb048a33c0<table><tr><td style="font-weight:bold;vertical-align:top;">comment</td><td style="vertical-align:top;">:</td><td><div></div></td></tr><tr><td style="font-weight:bold;vertical-align:top;">domain</td><td style="vertical-align:top;">:</td><td><div></div></td></tr><tr><td style="font-weight:bold;vertical-align:top;">expires</td><td style="vertical-align:top;">:</td><td><div></div></td></tr><tr><td style="font-weight:bold;vertical-align:top;">httponly</td><td style="vertical-align:top;">:</td><td><div></div></td></tr><tr><td style="font-weight:bold;vertical-align:top;">max-age</td><td style="vertical-align:top;">:</td><td><div></div></td></tr><tr><td style="font-weight:bold;vertical-align:top;">path</td><td style="vertical-align:top;">:</td><td><div>/</div></td></tr><tr><td style="font-weight:bold;vertical-align:top;">secure</td><td style="vertical-align:top;">:</td><td><div></div></td></tr><tr><td style="font-weight:bold;vertical-align:top;">version</td><td style="vertical-align:top;">:</td><td><div></div></td></tr></table></div></td></tr></table></div></td></tr><tr><td style="font-weight:bold;vertical-align:top;">delimiters</td><td style="vertical-align:top;">:</td><td><div><table><tr><td><div>{{</div></td></tr><tr><td><div>}}</div></td></tr></table></div></td></tr><tr><td style="font-weight:bold;vertical-align:top;">files</td><td style="vertical-align:top;">:</td><td><div><table></table></div></td></tr><tr><td style="font-weight:bold;vertical-align:top;">flash</td><td style="vertical-align:top;">:</td><td><div></div></td></tr><tr><td style="font-weight:bold;vertical-align:top;">form_label_separator</td><td style="vertical-align:top;">:</td><td><div></div></td></tr><tr><td style="font-weight:bold;vertical-align:top;">formstyle</td><td style="vertical-align:top;">:</td><td><div>bootstrap3_inline</div></td></tr><tr><td style="font-weight:bold;vertical-align:top;">generic_patterns</td><td style="vertical-align:top;">:</td><td><div><table><tr><td><div>*</div></td></tr></table></div></td></tr><tr><td style="font-weight:bold;vertical-align:top;">google_analytics_id</td><td style="vertical-align:top;">:</td><td><div>None</div></td></tr><tr><td style="font-weight:bold;vertical-align:top;">headers</td><td style="vertical-align:top;">:</td><td><div><table><tr><td style="font-weight:bold;vertical-align:top;">X-Powered-By</td><td style="vertical-align:top;">:</td><td><div>web2py</div></td></tr></table></div></td></tr><tr><td style="font-weight:bold;vertical-align:top;">logo</td><td style="vertical-align:top;">:</td><td><div><a class="navbar-brand" href="http://www.web2py.com/" id="web2py-logo"><b>web<span>2</span>py</b>&trade;&nbsp;</a></div></td></tr><tr><td style="font-weight:bold;vertical-align:top;">menu</td><td style="vertical-align:top;">:</td><td><div><table><tr><td><div><table><tr><td><div>Acciones</div></td></tr><tr><td><div>False</div></td></tr><tr><td><div>#</div></td></tr><tr><td><div><table><tr><td><div><table><tr><td><div>Vender</div></td></tr><tr><td><div>False</div></td></tr><tr><td><div>/ascli/ventas/index</div></td></tr><tr><td><div>[]</div></td></tr></table></div></td></tr><tr><td><div><table><tr><td><div>Comprar</div></td></tr><tr><td><div>False</div></td></tr><tr><td><div>/ascli/compras/index</div></td></tr><tr><td><div>[]</div></td></tr></table></div></td></tr><tr><td><div><table><tr><td><div>Prueba</div></td></tr><tr><td><div>False</div></td></tr><tr><td><div>/ascli/person/index</div></td></tr><tr><td><div>[]</div></td></tr></table></div></td></tr></table></div></td></tr></table></div></td></tr><tr><td><div><table><tr><td><div>Maestros</div></td></tr><tr><td><div>False</div></td></tr><tr><td><div>#</div></td></tr><tr><td><div><table><tr><td><div><table><tr><td><div>Productos</div></td></tr><tr><td><div>False</div></td></tr><tr><td><div>/ascli/productos/index</div></td></tr><tr><td><div>[]</div></td></tr></table></div></td></tr><tr><td><div><table><tr><td><div>Clientes</div></td></tr><tr><td><div>False</div></td></tr><tr><td><div>/ascli/clientes/index</div></td></tr><tr><td><div>[]</div></td></tr></table></div></td></tr><tr><td><div><table><tr><td><div>Poveedores</div></td></tr><tr><td><div>False</div></td></tr><tr><td><div>/ascli/proveedores/index</div></td></tr><tr><td><div>[]</div></td></tr></table></div></td></tr><tr><td><div><table><tr><td><div>Empleados</div></td></tr><tr><td><div>False</div></td></tr><tr><td><div>/ascli/empleados/index</div></td></tr><tr><td><div>[]</div></td></tr></table></div></td></tr></table></div></td></tr></table></div></td></tr><tr><td><div><table><tr><td><div>Del Negocio</div></td></tr><tr><td><div>False</div></td></tr><tr><td><div>#</div></td></tr><tr><td><div><table><tr><td><div><table><tr><td><div>Categorias Productos</div></td></tr><tr><td><div>False</div></td></tr><tr><td><div>/ascli/categorias_productos/index</div></td></tr><tr><td><div>[]</div></td></tr></table></div></td></tr><tr><td><div><table><tr><td><div>Cargo</div></td></tr><tr><td><div>False</div></td></tr><tr><td><div>/ascli/cargo/index</div></td></tr><tr><td><div>[]</div></td></tr></table></div></td></tr><tr><td><div><table><tr><td><div>Gastos</div></td></tr><tr><td><div>False</div></td></tr><tr><td><div>/ascli/gastos/index</div></td></tr><tr><td><div>[]</div></td></tr></table></div></td></tr><tr><td><div><table><tr><td><div>Permisos</div></td></tr><tr><td><div>False</div></td></tr><tr><td><div>/ascli/permisos/index</div></td></tr><tr><td><div>[]</div></td></tr></table></div></td></tr><tr><td><div><table><tr><td><div>Estado</div></td></tr><tr><td><div>False</div></td></tr><tr><td><div>/ascli/estado/index</div></td></tr><tr><td><div>[]</div></td></tr></table></div></td></tr><tr><td><div><table><tr><td><div>Periodo pagos</div></td></tr><tr><td><div>False</div></td></tr><tr><td><div>/ascli/periodo_pagos/index</div></td></tr><tr><td><div>[]</div></td></tr></table></div></td></tr><tr><td><div><table><tr><td><div>Tipo Ubicaci\xc3\xb3n</div></td></tr><tr><td><div>False</div></td></tr><tr><td><div>/ascli/tipo_ubicacion/index</div></td></tr><tr><td><div>[]</div></td></tr></table></div></td></tr><tr><td><div><table><tr><td><div>Turno Empleado</div></td></tr><tr><td><div>False</div></td></tr><tr><td><div>/ascli/turno_empleado/index</div></td></tr><tr><td><div>[]</div></td></tr></table></div></td></tr></table></div></td></tr></table></div></td></tr></table></div></td></tr><tr><td style="font-weight:bold;vertical-align:top;">meta</td><td style="vertical-align:top;">:</td><td><div><table><tr><td style="font-weight:bold;vertical-align:top;">author</td><td style="vertical-align:top;">:</td><td><div>Your Name &lt;you@example.com&gt;</div></td></tr><tr><td style="font-weight:bold;vertical-align:top;">description</td><td style="vertical-align:top;">:</td><td><div>a cool new app</div></td></tr><tr><td style="font-weight:bold;vertical-align:top;">generator</td><td style="vertical-align:top;">:</td><td><div>Web2py Web Framework</div></td></tr><tr><td style="font-weight:bold;vertical-align:top;">keywords</td><td style="vertical-align:top;">:</td><td><div>web2py, python, framework</div></td></tr></table></div></td></tr><tr><td style="font-weight:bold;vertical-align:top;">models_to_run</td><td style="vertical-align:top;">:</td><td><div><table><tr><td><div>^\\w+\\.py$</div></td></tr><tr><td><div>^person/\\w+\\.py$</div></td></tr><tr><td><div>^person/index/\\w+\\.py$</div></td></tr></table></div></td></tr><tr><td style="font-weight:bold;vertical-align:top;">postprocessing</td><td style="vertical-align:top;">:</td><td><div><table></table></div></td></tr><tr><td style="font-weight:bold;vertical-align:top;">session_client</td><td style="vertical-align:top;">:</td><td><div>127.0.0.1</div></td></tr><tr><td style="font-weight:bold;vertical-align:top;">session_cookie_compression_level</td><td style="vertical-align:top;">:</td><td><div>None</div></td></tr><tr><td style="font-weight:bold;vertical-align:top;">session_cookie_expires</td><td style="vertical-align:top;">:</td><td><div>None</div></td></tr><tr><td style="font-weight:bold;vertical-align:top;">session_data_name</td><td style="vertical-align:top;">:</td><td><div>session_data_ascli</div></td></tr><tr><td style="font-weight:bold;vertical-align:top;">session_file</td><td style="vertical-align:top;">:</td><td><div>&lt;open file &#x27;C:\\\\web2py\\\\applications\\\\ascli\\\\sessions\\\\088\\\\153\\\\127.0.0.1-fced61d4-8a15-47d5-a2f5-09fb048a33c0&#x27;, mode &#x27;rb+&#x27; at 0x0497F8B8&gt;</div></td></tr><tr><td style="font-weight:bold;vertical-align:top;">session_filename</td><td style="vertical-align:top;">:</td><td><div>C:\\web2py\\applications\\ascli\\sessions\\127.0.0.1-fced61d4-8a15-47d5-a2f5-09fb048a33c0</div></td></tr><tr><td style="font-weight:bold;vertical-align:top;">session_hash</td><td style="vertical-align:top;">:</td><td><div>470708fccee9abd5e356894088a8d7c8</div></td></tr><tr><td style="font-weight:bold;vertical-align:top;">session_id</td><td style="vertical-align:top;">:</td><td><div>127.0.0.1-fced61d4-8a15-47d5-a2f5-09fb048a33c0</div></td></tr><tr><td style="font-weight:bold;vertical-align:top;">session_id_name</td><td style="vertical-align:top;">:</td><td><div>session_id_ascli</div></td></tr><tr><td style="font-weight:bold;vertical-align:top;">session_locked</td><td style="vertical-align:top;">:</td><td><div>True</div></td></tr><tr><td style="font-weight:bold;vertical-align:top;">session_masterapp</td><td style="vertical-align:top;">:</td><td><div>ascli</div></td></tr><tr><td style="font-weight:bold;vertical-align:top;">session_new</td><td style="vertical-align:top;">:</td><td><div>False</div></td></tr><tr><td style="font-weight:bold;vertical-align:top;">session_storage_type</td><td style="vertical-align:top;">:</td><td><div>file</div></td></tr><tr><td style="font-weight:bold;vertical-align:top;">status</td><td style="vertical-align:top;">:</td><td><div>200</div></td></tr><tr><td style="font-weight:bold;vertical-align:top;">subtitle</td><td style="vertical-align:top;">:</td><td><div></div></td></tr><tr><td style="font-weight:bold;vertical-align:top;">title</td><td style="vertical-align:top;">:</td><td><div>Ascli</div></td></tr><tr><td style="font-weight:bold;vertical-align:top;">view</td><td style="vertical-align:top;">:</td><td><div>person/index.html</div></td></tr></table></div>'
tRp332
sS'locals'
p333
(dp334
S'field_type'
p335
S"'double'"
p336
sS'self'
p337
S'<pydal.adapters.sqlite.SQLiteAdapter object>'
p338
sS'value'
p339
S'datetime.date(2016, 8, 7)'
p340
sssS'traceback'
p341
S'Traceback (most recent call last):\n  File "C:\\web2py\\gluon\\restricted.py", line 227, in restricted\n    exec ccode in environment\n  File "C:\\web2py\\applications\\ascli\\controllers/person.py", line 9, in <module>\n  File "C:\\web2py\\gluon\\globals.py", line 417, in <lambda>\n    self._caller = lambda f: f()\n  File "C:\\web2py\\applications\\ascli\\controllers/person.py", line 6, in index\n    people=db(db.hijo).select()\n  File "C:\\web2py\\gluon\\packages\\dal\\pydal\\objects.py", line 2020, in select\n    return adapter.select(self.query, fields, attributes)\n  File "C:\\web2py\\gluon\\packages\\dal\\pydal\\adapters\\sqlite.py", line 123, in select\n    return super(SQLiteAdapter, self).select(query, fields, attributes)\n  File "C:\\web2py\\gluon\\packages\\dal\\pydal\\adapters\\base.py", line 1296, in select\n    return self._select_aux(sql,fields,attributes)\n  File "C:\\web2py\\gluon\\packages\\dal\\pydal\\adapters\\base.py", line 1277, in _select_aux\n    return processor(rows,fields,self._colnames,cacheable=cacheable)\n  File "C:\\web2py\\gluon\\packages\\dal\\pydal\\adapters\\base.py", line 1767, in parse\n    for row in rows]\n  File "C:\\web2py\\gluon\\packages\\dal\\pydal\\adapters\\base.py", line 1677, in _parse\n    value = self.parse_value(value, ft, blob_decode)\n  File "C:\\web2py\\gluon\\packages\\dal\\pydal\\adapters\\base.py", line 1527, in parse_value\n    return self.parsemap[key](value,field_type)\n  File "C:\\web2py\\gluon\\packages\\dal\\pydal\\adapters\\base.py", line 1628, in parse_double\n    return float(value)\nTypeError: float() argument must be a string or a number\n'
p342
s.