(dp1
S'output'
p2
S"<type 'exceptions.NameError'> name 'results2' is not defined"
p3
sS'layer'
p4
S'C:\\Users\\1229601\\Documents\\web2py\\applications\\ascli\\views\\ventas/index.html'
p5
sS'code'
p6
S'response.write(\'<!DOCTYPE html>\\n<!--[if (gt IE 9)|!(IE)]><!--> <html class="no-js" lang="\', escape=False)\nresponse.write(T.accepted_language or \'en\')\nresponse.write(\'"> <!--<![endif]-->\\n  <head>\\n    <meta charset="utf-8">\\n    <!-- www.phpied.com/conditional-comments-block-downloads/ -->\\n    <!-- Always force latest IE rendering engine\\n         (even in intranet) & Chrome Frame\\n         Remove this if you use the .htaccess -->\\n    <meta http-equiv="X-UA-Compatible" content="IE=edge\', escape=False)\nresponse.write(not request.is_local and \',chrome=1\' or \'\')\nresponse.write(\'">\\n    <!--  Mobile Viewport Fix\\n          j.mp/mobileviewport & davidbcalhoun.com/2010/viewport-metatag\\n          device-width: Occupy full width of the screen in its current orientation\\n          initial-scale = 1.0 retains dimensions instead of zooming out if page height > device height\\n          user-scalable = yes allows the user to zoom in -->\\n    <meta name="viewport" content="width=device-width, initial-scale=1.0">\\n    <title>\', escape=False)\nresponse.write(response.title or request.application)\nresponse.write(\'</title>\\n    <!-- http://dev.w3.org/html5/markup/meta.name.html -->\\n    <meta name="application-name" content="\', escape=False)\nresponse.write(request.application)\nresponse.write(\'">\\n    <!-- Speaking of Google, don\\\'t forget to set your site up:\\n         http://google.com/webmasters -->\\n    <meta name="google-site-verification" content="">\\n    <!-- include stylesheets -->\\n    <link rel="stylesheet" href="\', escape=False)\nresponse.write(URL(\'static\',\'css/bootstrap.min.css\'))\nresponse.write(\'"/>\\n    <link rel="stylesheet" href="\', escape=False)\nresponse.write(URL(\'static\',\'css/web2py-bootstrap3.css\'))\nresponse.write(\'"/>\\n    <link rel="shortcut icon" href="\', escape=False)\nresponse.write(URL(\'static\',\'images/favicon.ico\'))\nresponse.write(\'" type="image/x-icon">\\n    <link rel="apple-touch-icon" href="\', escape=False)\nresponse.write(URL(\'static\',\'images/favicon.png\'))\nresponse.write(\'">\\n    <!-- All JavaScript at the bottom, except for Modernizr which enables\\n         HTML5 elements & feature detects -->\\n    <script src="\', escape=False)\nresponse.write(URL(\'static\',\'js/modernizr-2.8.3.min.js\'))\nresponse.write(\'"></script>\\n    <!--[if lt IE 9]>\\n        <script src="\', escape=False)\nresponse.write(URL(\'static\',\'js/respond-1.4.2.min.js\'))\nresponse.write(\'"></script>\\n        <![endif]-->\\n    <!-- Favicons -->\\n    \', escape=False)\nresponse.write(\'<script type="text/javascript"><!--\\n    // These variables are used by the web2py_ajax_init function in web2py_ajax.js (which is loaded below).\\n    var w2p_ajax_confirm_message = "\', escape=False)\nresponse.write(T(\'Are you sure you want to delete this object?\'))\nresponse.write(\'";\\n    var w2p_ajax_disable_with_message = "\', escape=False)\nresponse.write(T(\'Working...\'))\nresponse.write(\'";\\n    var w2p_ajax_date_format = "\', escape=False)\nresponse.write(T(\'%Y-%m-%d\'))\nresponse.write(\'";\\n    var w2p_ajax_datetime_format = "\', escape=False)\nresponse.write(T(\'%Y-%m-%d %H:%M:%S\'))\nresponse.write(\'";\\n    var ajax_error_500 = \\\'\', escape=False)\nresponse.write(T.M(\'An error occured, please [[reload %s]] the page\') % URL(args=request.args, vars=request.get_vars))\nresponse.write("\'\\n    //--></script>\\n", escape=False)\nresponse.files.insert(0,URL(\'static\',\'js/jquery.js\'))\nresponse.files.insert(1,URL(\'static\',\'css/calendar.css\'))\nresponse.files.insert(2,URL(\'static\',\'js/calendar.js\'))\nresponse.files.insert(3,URL(\'static\',\'js/web2py.js\'))\nresponse.include_meta()\nresponse.include_files()\nresponse.write(\'\\n\', escape=False)\nresponse.write(\' <!-- this includes jquery.js, calendar.js/.css and web2py.js -->\\n    \', escape=False)\nresponse.write(\'\\n    \', escape=False)\n# using sidebars need to know what sidebar you want to use\nmc0 = \'col-md-12\'\nmc1 = \'col-md-9\'\nmc2 = \'col-md-6\'\nleft_sidebar_enabled = globals().get(\'left_sidebar_enabled\', False)\nright_sidebar_enabled = globals().get(\'right_sidebar_enabled\', False)\nmiddle_column = {0: mc0, 1: mc1, 2: mc2}[\n(left_sidebar_enabled and 1 or 0)+(right_sidebar_enabled and 1 or 0)]\nresponse.write(\'\\n  </head>\\n  <body>\\n    <!--[if lt IE 8]><p class="browserupgrade">You are using an <strong>outdated</strong> browser. Please <a href="http://browsehappy.com/">upgrade your browser</a> to improve your experience.</p><![endif]-->\\n    <div class="flash alert alert-dismissable">\', escape=False)\nresponse.write(response.flash or \'\')\nresponse.write(\'</div>\\n    <!-- Navbar ======================================= -->\\n    <nav class="navbar navbar-default navbar-fixed-top" role="navigation">\\n      <div class="container-fluid">\\n        <div class="navbar-header">\\n          <button type="button" class="navbar-toggle" data-toggle="collapse" data-target=".navbar-collapse">\\n            <span class="sr-only">Toggle navigation</span>\\n            <span class="icon-bar"></span>\\n            <span class="icon-bar"></span>\\n            <span class="icon-bar"></span>\\n          </button>\\n          \', escape=False)\nresponse.write(response.logo or \'\')\nresponse.write(\'\\n        </div>\\n        <div class="collapse navbar-collapse navbar-ex1-collapse">\\n          <ul class="nav navbar-nav navbar-right">\\n            \', escape=False)\nresponse.write(\'auth\' in globals() and auth.navbar(\'Welcome\',mode=\'dropdown\') or \'\')\nresponse.write(\'\\n          </ul>\\n          \', escape=False)\nif response.menu:\n    response.write(\'\\n          \', escape=False)\n    response.write(MENU(response.menu, _class=\'nav navbar-nav\',li_class=\'dropdown\',ul_class=\'dropdown-menu\'))\n    response.write(\'\\n          \', escape=False)\n    pass\nresponse.write(\'\\n        </div>\\n      </div>\\n    </nav>\\n    <!-- Masthead ===================================== -->    \\n    \', escape=False)\nresponse.write(\'\\n    \', escape=False)\nresponse.write(\'\\n    <!-- Main ========================================= -->\\n    <!-- Begin page content -->\\n    <div class="container-fluid main-container">\\n      \', escape=False)\nif left_sidebar_enabled:\n    response.write(\'\\n        <div class="col-md-3 left-sidebar">\\n            \', escape=False)\n    response.write(\'\\n            <h3>Left Sidebar</h3>\\n            <p></p>\\n            \', escape=False)\n    response.write(\'\\n        </div>\\n      \', escape=False)\n    pass\nresponse.write(\'\\n\\n      <div class="\', escape=False)\nresponse.write(middle_column)\nresponse.write(\'">\\n        \', escape=False)\nresponse.write(\'\\n        \', escape=False)\nresponse.write(\'\\r\\n\', escape=False)\nif \'message\' in globals():\n    response.write(\'\\r\\n\\r\\n<h3>\', escape=False)\n    response.write(message)\n    response.write(\'</h3>\\r\\n\\r\\n\', escape=False)\n    pass\nresponse.write(\'\\r\\n<div id="dtabla">\\r\\n<script\\r\\n  src="\', escape=False)\nresponse.write(URL(\'static\',\'DataTables-1.10.12/media/js/jquery.dataTables.min.js\'))\nresponse.write(\'"\\r\\n  src="\', escape=False)\nresponse.write(URL(\'static\',\'DataTables-1.10.12/media/js/dataTables.bootstrap.min.js\'))\nresponse.write(\'">\\r\\n</script>\\r\\n\\r\\n<!-- css que contiene el formato de tablas para las facturas -->\\r\\n<link rel="stylesheet" href="\', escape=False)\nresponse.write(URL(\'static\',\'css/ccstablas.css\'))\nresponse.write(\'"/>\\r\\n<style>\\r\\n#sugerencias { position: relative; }\\r\\n.sugerencias { background: white; border: solid 1px #55A6C8; }\\r\\n.sugerencias DIV { padding: 2px 4px 2px 4px; }\\r\\n</style>\\r\\n\\r\\n\\r\\n<form id="frmproducto">\\r\\n    <div id="dcliente">\\r\\n        &nbsp;<table id="tcliente" style="width: 100%;">\\r\\n            <tr>\\r\\n                <td class="auto-style1">CLIENTE</td>\\r\\n                <td class="auto-style2">\\r\\n                    <input id="txtcliente" type="text" class="txtid" />\\r\\n                <td class="auto-style3">&nbsp;</td>\\r\\n                <td class="auto-style1">&nbsp;</td>\\r\\n                <td class="auto-style2">&nbsp;</td>\\r\\n                <td class="auto-style3">&nbsp;</td>\\r\\n                <td class="auto-style1">&nbsp;</td>\\r\\n                <td class="auto-style2">&nbsp;</td>\\r\\n            </tr>\\r\\n            <tr>\\r\\n                <td class="auto-style1">PRODUCTO</td>\\r\\n                <td class="auto-style2">\\r\\n                    <input id="txtproducto" type="text" class="txtid" />\\r\\n                <td class="auto-style3">&nbsp;</td>\\r\\n                <td class="auto-style1">CANTIDAD</td>\\r\\n                <td class="auto-style2">\\r\\n                    <input id="txtcantidad" type="text" class="txtCAN" />\\r\\n                </td>\\r\\n                <td class="auto-style3">&nbsp;</td>\\r\\n                <td class="auto-style1">DESCUENTO</td>\\r\\n                <td class="auto-style2">\\r\\n                    <input id="txtdescuento" type="text" class="txtCAN" />\\r\\n                </td>\\r\\n            </tr>\\r\\n            <tr>\\r\\n                <td class="auto-style1">&nbsp;</td>\\r\\n                <td class="auto-style2">&nbsp;</td>\\r\\n                <td class="auto-style3">&nbsp;</td>\\r\\n                <td class="auto-style1">&nbsp;</td>\\r\\n                <td class="auto-style2">&nbsp;</td>\\r\\n                <td class="auto-style3">&nbsp;</td>\\r\\n                <td class="auto-style1">&nbsp;</td>\\r\\n                <td class="auto-style2">\\r\\n                    <input id="cmdagregar" type="button" value="Agregar" /></td>\\r\\n            </tr>\\r\\n        </table>\\r\\n    </div>\\r\\n\\r\\n</form>\\r\\n\\r\\n<script>\\r\\n   /* jQuery("#mes").keyup(function(){\\r\\n        ajax(\\\'refrescar_tabla\\\', [\\\'mes\\\'], \\\'sugerencias\\\')});*/\\r\\n\\r\\n\\r\\n\\r\\n/* para agrear registros a la tabla temporal*/\\r\\n /*   jQuery(\\\'#frmproducto\\\').submit(function() {\\r\\n  ajax(\\\'\', escape=False)\nresponse.write(URL(\'Agregar_Producto_Tabla\'))\nresponse.write(\'\\\',\\r\\n       [\\\'txtproducto\\\'], \\\'txtcantidad\\\', \\\'txtdescuento\\\');\\r\\n  return false;*/\\r\\n\\r\\n</script>\\r\\n\\r\\n<table id="venta" class="display" cellspacing="0" width="100%">\\r\\n    <thead>\\r\\n        <tr>\\r\\n            <th>C\\xc3\\xb3digo</th>\\r\\n            <th>Producto</th>\\r\\n            <th>Cantidad</th>\\r\\n            <th>Valor Total</th>\\r\\n            <th>Iva</th>\\r\\n            <th>% Descuento</th>\\r\\n        </tr>\\r\\n    </thead>\\r\\n</table>\\r\\n\\r\\n\\r\\n<script type="text/javascript">\\r\\n\\r\\n\\r\\n$(document).ready(function(){\\r\\n/* Funci\\xc3\\xb3n para mostrar un datatable de jquery    */\\r\\n\\r\\n    /*\\r\\n    $("#hijos").DataTable({\\r\\n        data:  \', escape=False)\nresponse.write(results)\nresponse.write(\',\\r\\n        columns: [\\r\\n            { data: \\\'first_name\\\' },\\r\\n            { data: \\\'last_name\\\' }\\r\\n            // \\\'id\\\' omitted to show that you can\\r\\n            // use only the fields you choose\\r\\n        ],\\r\\n        "language": {\\r\\n            "url": "//cdn.datatables.net/plug-ins/9dcbecd42ad/i18n/Spanish.json"\\r\\n        },\\r\\n        "scrollY":        "300px",\\r\\n        "scrollCollapse": true,\\r\\n        "paging": true\\r\\n    })\\r\\n    */\\r\\n\\r\\n    var table = $(\\\'#venta\\\').DataTable(\\r\\n    {\\r\\n\\r\\n        data:  \', escape=False)\nresponse.write(results)\nresponse.write(\',\\r\\n        /* campos a mostrar */\\r\\n        columns: [\\r\\n            { data: \\\'IdProducto\\\' },\\r\\n            { data: \\\'NombreProducto\\\' },\\r\\n            { data: \\\'Cantidad\\\' },\\r\\n            { data: \\\'ValorTotalProducto\\\' },\\r\\n            { data: \\\'ValorIva\\\' },\\r\\n            { data: \\\'PorcentajeDescuento\\\' }\\r\\n            // \\\'id\\\' omitted to show that you can\\r\\n            // use only the fields you choose\\r\\n        ],\\r\\n        /* Botones a mostrar */\\r\\n       /* buttons: [\\r\\n            \\\'copy\\\', \\\'excel\\\', \\\'pdf\\\'\\r\\n        ],*/\\r\\n        /* Lenguaje de la tabla */\\r\\n        "language": {\\r\\n          /*  "url": "//cdn.datatables.net/plug-ins/9dcbecd42ad/i18n/Spanish.json" */\\r\\n            "url": "\', escape=False)\nresponse.write(URL(\'static\',\'json/Spanish.json\'))\nresponse.write(\'"\\r\\n        },\\r\\n        /* Propiedades de la tabla */\\r\\n        "scrollY":        "300px",\\r\\n        "scrollCollapse": true,\\r\\n        "paging": true,\\r\\n        "dom": \\\'T<"clear">lfrtip\\\',\\r\\n        "tableTools": {\\r\\n            "sSwfPath": "/swf/copy_csv_xls_pdf.swf"\\r\\n        }\\r\\n\\r\\n    }\\r\\n    );\\r\\n\\r\\n    /* Para habilitar la selecci\\xc3\\xb3n de un solo registro en la tabla */\\r\\n    $(\\\'#venta tbody\\\').on( \\\'click\\\', \\\'tr\\\', function () {\\r\\n        if ( $(this).hasClass(\\\'selected\\\') ) {\\r\\n            $(this).removeClass(\\\'selected\\\');\\r\\n        }\\r\\n        else {\\r\\n            table.$(\\\'tr.selected\\\').removeClass(\\\'selected\\\');\\r\\n            $(this).addClass(\\\'selected\\\');\\r\\n        }\\r\\n    } );\\r\\n\\r\\n    $(\\\'#button\\\').click( function () {\\r\\n        table.row(\\\'.selected\\\').remove().draw( false );\\r\\n    } );\\r\\n\\r\\n/*\\r\\n    $(\\\'#cmdagregar\\\').on( \\\'click\\\', function()\\r\\n    {\\r\\n\\r\\n            table.row.add(\\r\\n            [{\\r\\n                "IdProducto": "345",\\r\\n                "PorcentajeDescuento": "5",\\r\\n                "Cantidad": "5",\\r\\n                "NombreProducto": "sdfds",\\r\\n                "ValorIva": "4",\\r\\n                "ValorTotalProducto": "45"\\r\\n            }\\r\\n\\r\\n\\r\\n          /*db.Field(\\\'IdVenta\\\', type=\\\'double\\\', label=T(u\\\'IdVenta\\\'),comment=\\\'xxx\\\'),\\r\\n            db.Field(\\\'IdProducto\\\', type=\\\'double\\\', label=T(u\\\'IdProducto\\\'),comment=\\\'xxx\\\'),\\r\\n            db.Field(\\\'NombreProducto\\\', type=\\\'text\\\', label=T(u\\\'NombreProducto\\\'),comment=\\\'xxx\\\'),\\r\\n            db.Field(\\\'IdUbicacion\\\', type=\\\'text\\\', length=2, label=T(u\\\'IdUbicacion\\\'),comment=\\\'xxx\\\'),\\r\\n            db.Field(\\\'Cantidad\\\', type=\\\'double\\\', label=T(u\\\'Cantidad\\\'),comment=\\\'xxx\\\'),\\r\\n            db.Field(\\\'ValorTotalProducto\\\', type=\\\'double\\\', label=T(u\\\'ValorTotalProducto\\\'),comment=\\\'xxx\\\'),\\r\\n            db.Field(\\\'ValorIva\\\', type=\\\'double\\\', label=T(u\\\'ValorIva\\\'),comment=\\\'xxx\\\'),\\r\\n            db.Field(\\\'PorcentajeDescuento\\\', type=\\\'double\\\', label=T(u\\\'PorcentajeDescuento\\\'),comment=\\\'xxx\\\')\\r\\n                /*685.0, 2.0, 1.0, 5.0,  \\\'otro\\\',  3.0,  2.0, \\\'\\\',  1\\r\\n                \\\'6.0\\\', \\\'5.0\\\', "Comodoro", \\\'2.0\\\', \\\'2.0\\\', \\\'3.0\\\', \\\'685.0\\\' */\\r\\n               /* "IdVenta": "343",\\r\\n                "IdProducto": 343,\\r\\n                "NombreProducto": "System Architect",\\r\\n                "IdUbicacion": " ",\\r\\n                "Cantidad": "3",\\r\\n                "ValorTotalProducto": "20115",\\r\\n                "ValorIva": "23",\\r\\n                "PorcentajeDescuento": "5421"*//*\\r\\n\\r\\n            ]).draw();\\r\\n\\r\\n\\r\\n    });\\r\\n*/\\r\\n    /* Tomar la informaci\\xc3\\xb3n de la fila */\\r\\n     $(\\\'#venta tbody\\\').on(\\\'click\\\', \\\'tr\\\', function () {\\r\\n        var codigo = $(\\\'td\\\', this).eq(0).text();\\r\\n\\r\\n        var nombre = $(\\\'td\\\', this).eq(1).text();\\r\\n        alert( \\\'C\\xc3\\xb3digo del cliente \\\'+codigo+\\\' \\\'+\\\'Nombre \\\'+nombre);\\r\\n\\r\\n    } );\\r\\n\\r\\n});\\r\\n\\r\\n$(\\\'#cmdagregar\\\').on( \\\'click\\\', function()\\r\\n{\\r\\najax(\\\'refrescar_tabla\\\',\\\'\\\',\\\'results2\\\')\\r\\n var table = $(\\\'#venta\\\').DataTable(\\r\\n    {\\r\\n\\r\\n        data:  \', escape=False)\nresponse.write(results2)\nresponse.write(\',\\r\\n        /* campos a mostrar */\\r\\n        columns: [\\r\\n            { data: \\\'IdProducto\\\' },\\r\\n            { data: \\\'NombreProducto\\\' },\\r\\n            { data: \\\'Cantidad\\\' },\\r\\n            { data: \\\'ValorTotalProducto\\\' },\\r\\n            { data: \\\'ValorIva\\\' },\\r\\n            { data: \\\'PorcentajeDescuento\\\' }\\r\\n            // \\\'id\\\' omitted to show that you can\\r\\n            // use only the fields you choose\\r\\n        ],\\r\\n        /* Botones a mostrar */\\r\\n       /* buttons: [\\r\\n            \\\'copy\\\', \\\'excel\\\', \\\'pdf\\\'\\r\\n        ],*/\\r\\n        /* Lenguaje de la tabla */\\r\\n        "language": {\\r\\n          /*  "url": "//cdn.datatables.net/plug-ins/9dcbecd42ad/i18n/Spanish.json" */\\r\\n            "url": "\', escape=False)\nresponse.write(URL(\'static\',\'json/Spanish.json\'))\nresponse.write(\'"\\r\\n        },\\r\\n        /* Propiedades de la tabla */\\r\\n        "scrollY":        "300px",\\r\\n        "scrollCollapse": true,\\r\\n        "paging": true,\\r\\n        "dom": \\\'T<"clear">lfrtip\\\',\\r\\n        "tableTools": {\\r\\n            "sSwfPath": "/swf/copy_csv_xls_pdf.swf"\\r\\n        }\\r\\n\\r\\n    }\\r\\n    );\\r\\n\\r\\n});\\r\\n\\r\\n/*var table = $(\\\'#venta\\\').DataTable();\\r\\n\\r\\ntable.ajax.reload( function ( json ) {\\r\\n    $(\\\'#cmdagregar\\\').val( json.lastInput );\\r\\n} );\\r\\n*/\\r\\n\\r\\n/*jQuery("#cmdagregar").keypress(function(){\\r\\n      ajax(\\\'refrescar_tabla\\\')});*/\\r\\n\\r\\n\\r\\n\\r\\n</script>\\r\\n\\r\\n\\r\\n\\r\\n<table id="tvender" class="display" cellspacing="0" width="100%">\\r\\n    <thead>\\r\\n        <tr>\\r\\n            <th style="text-align: right"><input id="cmdvender" type="button" value="Vender" /></th>\\r\\n        </tr>\\r\\n    </thead>\\r\\n</table>\\r\\n</div>\\r\\n\', escape=False)\nresponse.write(\'\\n        \', escape=False)\nresponse.write(\'\\n      </div>\\n\\n      \', escape=False)\nif right_sidebar_enabled:\n    response.write(\'\\n        <div class="col-md-3">\\n            \', escape=False)\n    response.write(\'\\n            <h3>Right Sidebar</h3>\\n            <p></p>\\n            \', escape=False)\n    response.write(\'\\n        </div>\\n      \', escape=False)\n    pass\nresponse.write(\'\\n\\n    </div>\\n\\n    \', escape=False)\nresponse.write(\' <!-- this is default footer -->      \\n    <footer class="footer">\\n      <div class="container-fluid">\\n        <div class="copyright pull-left">\', escape=False)\nresponse.write(T(\'Copyright\'))\nresponse.write(\' &#169; \', escape=False)\nresponse.write(request.now.year)\nresponse.write(\'</div>\\n          <div id="poweredBy" class="pull-right">\\n            \', escape=False)\nresponse.write(T(\'Powered by\'))\nresponse.write(\'\\n            <a href="http://www.web2py.com/">web2py</a>\\n          </div>\\n      </div>\\n    </footer>\\n    \', escape=False)\nresponse.write(\'\\n    <!-- The javascript =============================== -->\\n    <script src="\', escape=False)\nresponse.write(URL(\'static\',\'js/bootstrap.min.js\'))\nresponse.write(\'"></script>\\n    <script src="\', escape=False)\nresponse.write(URL(\'static\',\'js/web2py-bootstrap3.js\'))\nresponse.write(\'"></script>\\n    \', escape=False)\nresponse.write(\'\\n    \', escape=False)\nif response.google_analytics_id:\n    response.write(\'\\n    <!-- Analytics ==================================== -->\\n    <script src="\', escape=False)\n    response.write(URL(\'static\',\'js/analytics.min.js\'))\n    response.write(\'"></script>\\n    <script type="text/javascript">\\n      analytics.initialize({\\n      \\\'Google Analytics\\\':{trackingId:\\\'\', escape=False)\n    response.write(response.google_analytics_id)\n    response.write("\'}\\n      });\\n    </script>\\n    ", escape=False)\n    pass\nresponse.write(\'\\n    <!-- Share ============================y============ -->\\n    <script src="\', escape=False)\nresponse.write(URL(\'static\',\'js/share.js\',vars=dict(static=URL(\'static\',\'images\'))))\nresponse.write(\'"></script>\\n  </body>\\n</html>\\n\', escape=False)'
p7
sS'snapshot'
p8
(dp9
S'exception'
p10
(dp11
S'__hash__'
p12
S"<method-wrapper '__hash__' of exceptions.NameError object>"
p13
sS'__setattr__'
p14
S"<method-wrapper '__setattr__' of exceptions.NameError object>"
p15
sS'__reduce_ex__'
p16
S'<built-in method __reduce_ex__ of exceptions.NameError object>'
p17
sS'__getslice__'
p18
S"<method-wrapper '__getslice__' of exceptions.NameError object>"
p19
sS'__getitem__'
p20
S"<method-wrapper '__getitem__' of exceptions.NameError object>"
p21
sS'__setstate__'
p22
S'<built-in method __setstate__ of exceptions.NameError object>'
p23
sS'__reduce__'
p24
S'<built-in method __reduce__ of exceptions.NameError object>'
p25
sS'__str__'
p26
S"<method-wrapper '__str__' of exceptions.NameError object>"
p27
sS'__format__'
p28
S'<built-in method __format__ of exceptions.NameError object>'
p29
sS'__getattribute__'
p30
S"<method-wrapper '__getattribute__' of exceptions.NameError object>"
p31
sS'__class__'
p32
S"<type 'exceptions.NameError'>"
p33
sS'__unicode__'
p34
S'<built-in method __unicode__ of exceptions.NameError object>'
p35
sS'__delattr__'
p36
S"<method-wrapper '__delattr__' of exceptions.NameError object>"
p37
sS'__subclasshook__'
p38
S'<built-in method __subclasshook__ of type object>'
p39
sS'__repr__'
p40
S"<method-wrapper '__repr__' of exceptions.NameError object>"
p41
sS'args'
p42
S'("name \'results2\' is not defined",)'
p43
sS'__dict__'
p44
S'{}'
p45
sS'__sizeof__'
p46
S'<built-in method __sizeof__ of exceptions.NameError object>'
p47
sS'__doc__'
p48
S"'Name not found globally.'"
p49
sS'__init__'
p50
S"<method-wrapper '__init__' of exceptions.NameError object>"
p51
sS'__new__'
p52
S'<built-in method __new__ of type object>'
p53
ssS'evalue'
p54
S"name 'results2' is not defined"
p55
sS'request'
p56
cgluon.html
XML_unpickle
p57
(S's\xee]\x00\x00<div><table><tr><td style="font-weight:bold;vertical-align:top;">ajax</td><td style="vertical-align:top;">:</td><td><div>False</div></td></tr><tr><td style="font-weight:bold;vertical-align:top;">application</td><td style="vertical-align:top;">:</td><td><div>ascli</div></td></tr><tr><td style="font-weight:bold;vertical-align:top;">args</td><td style="vertical-align:top;">:</td><td><div><table></table></div></td></tr><tr><td style="font-weight:bold;vertical-align:top;">cid</td><td style="vertical-align:top;">:</td><td><div>None</div></td></tr><tr><td style="font-weight:bold;vertical-align:top;">client</td><td style="vertical-align:top;">:</td><td><div>127.0.0.1</div></td></tr><tr><td style="font-weight:bold;vertical-align:top;">controller</td><td style="vertical-align:top;">:</td><td><div>ventas</div></td></tr><tr><td style="font-weight:bold;vertical-align:top;">cookies</td><td style="vertical-align:top;">:</td><td><div><table><tr><td style="font-weight:bold;vertical-align:top;">session_id_admin</td><td style="vertical-align:top;">:</td><td><div>127.0.0.1-98ae030e-8486-4be5-9dde-2ffb30b07df8<table><tr><td style="font-weight:bold;vertical-align:top;">comment</td><td style="vertical-align:top;">:</td><td><div></div></td></tr><tr><td style="font-weight:bold;vertical-align:top;">domain</td><td style="vertical-align:top;">:</td><td><div></div></td></tr><tr><td style="font-weight:bold;vertical-align:top;">expires</td><td style="vertical-align:top;">:</td><td><div></div></td></tr><tr><td style="font-weight:bold;vertical-align:top;">httponly</td><td style="vertical-align:top;">:</td><td><div></div></td></tr><tr><td style="font-weight:bold;vertical-align:top;">max-age</td><td style="vertical-align:top;">:</td><td><div></div></td></tr><tr><td style="font-weight:bold;vertical-align:top;">path</td><td style="vertical-align:top;">:</td><td><div></div></td></tr><tr><td style="font-weight:bold;vertical-align:top;">secure</td><td style="vertical-align:top;">:</td><td><div></div></td></tr><tr><td style="font-weight:bold;vertical-align:top;">version</td><td style="vertical-align:top;">:</td><td><div></div></td></tr></table></div></td></tr><tr><td style="font-weight:bold;vertical-align:top;">session_id_ascli</td><td style="vertical-align:top;">:</td><td><div>127.0.0.1-b7d08617-4b5c-4e8d-bf43-9c624331f637<table><tr><td style="font-weight:bold;vertical-align:top;">comment</td><td style="vertical-align:top;">:</td><td><div></div></td></tr><tr><td style="font-weight:bold;vertical-align:top;">domain</td><td style="vertical-align:top;">:</td><td><div></div></td></tr><tr><td style="font-weight:bold;vertical-align:top;">expires</td><td style="vertical-align:top;">:</td><td><div></div></td></tr><tr><td style="font-weight:bold;vertical-align:top;">httponly</td><td style="vertical-align:top;">:</td><td><div></div></td></tr><tr><td style="font-weight:bold;vertical-align:top;">max-age</td><td style="vertical-align:top;">:</td><td><div></div></td></tr><tr><td style="font-weight:bold;vertical-align:top;">path</td><td style="vertical-align:top;">:</td><td><div></div></td></tr><tr><td style="font-weight:bold;vertical-align:top;">secure</td><td style="vertical-align:top;">:</td><td><div></div></td></tr><tr><td style="font-weight:bold;vertical-align:top;">version</td><td style="vertical-align:top;">:</td><td><div></div></td></tr></table></div></td></tr><tr><td style="font-weight:bold;vertical-align:top;">session_id_welcome</td><td style="vertical-align:top;">:</td><td><div>127.0.0.1-843ba3b8-491f-411b-b7c3-1f0f55f98384<table><tr><td style="font-weight:bold;vertical-align:top;">comment</td><td style="vertical-align:top;">:</td><td><div></div></td></tr><tr><td style="font-weight:bold;vertical-align:top;">domain</td><td style="vertical-align:top;">:</td><td><div></div></td></tr><tr><td style="font-weight:bold;vertical-align:top;">expires</td><td style="vertical-align:top;">:</td><td><div></div></td></tr><tr><td style="font-weight:bold;vertical-align:top;">httponly</td><td style="vertical-align:top;">:</td><td><div></div></td></tr><tr><td style="font-weight:bold;vertical-align:top;">max-age</td><td style="vertical-align:top;">:</td><td><div></div></td></tr><tr><td style="font-weight:bold;vertical-align:top;">path</td><td style="vertical-align:top;">:</td><td><div></div></td></tr><tr><td style="font-weight:bold;vertical-align:top;">secure</td><td style="vertical-align:top;">:</td><td><div></div></td></tr><tr><td style="font-weight:bold;vertical-align:top;">version</td><td style="vertical-align:top;">:</td><td><div></div></td></tr></table></div></td></tr></table></div></td></tr><tr><td style="font-weight:bold;vertical-align:top;">env</td><td style="vertical-align:top;">:</td><td><div><table><tr><td style="font-weight:bold;vertical-align:top;">HTTP_ACCEPT</td><td style="vertical-align:top;">:</td><td><div>text/html,application/xhtml+xml,application/xml;q=0.9,image/webp,*/*;q=0.8</div></td></tr><tr><td style="font-weight:bold;vertical-align:top;">HTTP_ACCEPT_ENCODING</td><td style="vertical-align:top;">:</td><td><div>gzip, deflate, sdch</div></td></tr><tr><td style="font-weight:bold;vertical-align:top;">HTTP_ACCEPT_LANGUAGE</td><td style="vertical-align:top;">:</td><td><div>es-419,es;q=0.8,en-US;q=0.6,en;q=0.4</div></td></tr><tr><td style="font-weight:bold;vertical-align:top;">HTTP_CACHE_CONTROL</td><td style="vertical-align:top;">:</td><td><div>max-age=0</div></td></tr><tr><td style="font-weight:bold;vertical-align:top;">HTTP_CONNECTION</td><td style="vertical-align:top;">:</td><td><div>keep-alive</div></td></tr><tr><td style="font-weight:bold;vertical-align:top;">HTTP_COOKIE</td><td style="vertical-align:top;">:</td><td><div>session_id_welcome=127.0.0.1-843ba3b8-491f-411b-b7c3-1f0f55f98384; session_id_ascli=127.0.0.1-b7d08617-4b5c-4e8d-bf43-9c624331f637; session_id_admin=127.0.0.1-98ae030e-8486-4be5-9dde-2ffb30b07df8</div></td></tr><tr><td style="font-weight:bold;vertical-align:top;">HTTP_HOST</td><td style="vertical-align:top;">:</td><td><div>127.0.0.1:8000</div></td></tr><tr><td style="font-weight:bold;vertical-align:top;">HTTP_REFERER</td><td style="vertical-align:top;">:</td><td><div>http://127.0.0.1:8000/ascli/default/index</div></td></tr><tr><td style="font-weight:bold;vertical-align:top;">HTTP_UPGRADE_INSECURE_REQUESTS</td><td style="vertical-align:top;">:</td><td><div>1</div></td></tr><tr><td style="font-weight:bold;vertical-align:top;">HTTP_USER_AGENT</td><td style="vertical-align:top;">:</td><td><div>Mozilla/5.0 (Windows NT 6.1; WOW64) AppleWebKit/537.36 (KHTML, like Gecko) Chrome/52.0.2743.116 Safari/537.36</div></td></tr><tr><td style="font-weight:bold;vertical-align:top;">PATH_INFO</td><td style="vertical-align:top;">:</td><td><div>/ascli/ventas/index</div></td></tr><tr><td style="font-weight:bold;vertical-align:top;">QUERY_STRING</td><td style="vertical-align:top;">:</td><td><div></div></td></tr><tr><td style="font-weight:bold;vertical-align:top;">REMOTE_ADDR</td><td style="vertical-align:top;">:</td><td><div>127.0.0.1</div></td></tr><tr><td style="font-weight:bold;vertical-align:top;">REMOTE_PORT</td><td style="vertical-align:top;">:</td><td><div>61216</div></td></tr><tr><td style="font-weight:bold;vertical-align:top;">REQUEST_METHOD</td><td style="vertical-align:top;">:</td><td><div>GET</div></td></tr><tr><td style="font-weight:bold;vertical-align:top;">SCRIPT_NAME</td><td style="vertical-align:top;">:</td><td><div></div></td></tr><tr><td style="font-weight:bold;vertical-align:top;">SERVER_NAME</td><td style="vertical-align:top;">:</td><td><div>50HW002798</div></td></tr><tr><td style="font-weight:bold;vertical-align:top;">SERVER_PORT</td><td style="vertical-align:top;">:</td><td><div>8000</div></td></tr><tr><td style="font-weight:bold;vertical-align:top;">SERVER_PROTOCOL</td><td style="vertical-align:top;">:</td><td><div>HTTP/1.1</div></td></tr><tr><td style="font-weight:bold;vertical-align:top;">SERVER_SOFTWARE</td><td style="vertical-align:top;">:</td><td><div>Rocket 1.2.6</div></td></tr><tr><td style="font-weight:bold;vertical-align:top;">app_folders</td><td style="vertical-align:top;">:</td><td><div>set([&#x27;C:\\\\Users\\\\1229601\\\\Documents\\\\web2py\\\\applications\\\\welcome\\\\&#x27;, &#x27;C:\\\\Users\\\\1229601\\\\Documents\\\\web2py\\\\applications\\\\admin\\\\&#x27;, &#x27;C:\\\\Users\\\\1229601\\\\Documents\\\\web2py\\\\applications\\\\ascli\\\\&#x27;])</div></td></tr><tr><td style="font-weight:bold;vertical-align:top;">applications_parent</td><td style="vertical-align:top;">:</td><td><div>C:\\Users\\1229601\\Documents\\web2py</div></td></tr><tr><td style="font-weight:bold;vertical-align:top;">cmd_args</td><td style="vertical-align:top;">:</td><td><div><table></table></div></td></tr><tr><td style="font-weight:bold;vertical-align:top;">cmd_options</td><td style="vertical-align:top;">:</td><td><div>&lt;Values at 0x3200fd0: {&#x27;verbose&#x27;: False, &#x27;ip&#x27;: &#x27;127.0.0.1&#x27;, &#x27;debuglevel&#x27;: 30, &#x27;with_scheduler&#x27;: False, &#x27;shutdown_timeout&#x27;: 5, &#x27;taskbar&#x27;: False, &#x27;with_coverage&#x27;: False, &#x27;pid_filename&#x27;: &#x27;httpserver.pid&#x27;, &#x27;maxthreads&#x27;: None, &#x27;softcron&#x27;: False, &#x27;server_name&#x27;: &#x27;50HW002798&#x27;, &#x27;bpython&#x27;: False, &#x27;nogui&#x27;: False, &#x27;port&#x27;: 8000, &#x27;print_errors&#x27;: False, &#x27;extcron&#x27;: False, &#x27;runcron&#x27;: False, &#x27;run_system_tests&#x27;: False, &#x27;test&#x27;: None, &#x27;folder&#x27;: &#x27;C:\\\\Users\\\\1229601\\\\Documents\\\\web2py&#x27;, &#x27;config&#x27;: &#x27;&#x27;, &#x27;minthreads&#x27;: None, &#x27;shell&#x27;: None, &#x27;run&#x27;: &#x27;&#x27;, &#x27;log_filename&#x27;: &#x27;httpserver.log&#x27;, &#x27;profiler_dir&#x27;: None, &#x27;args&#x27;: [&#x27;&#x27;], &#x27;socket_timeout&#x27;: 5, &#x27;ssl_ca_certificate&#x27;: None, &#x27;scheduler&#x27;: None, &#x27;interfaces&#x27;: None, &#x27;ssl_private_key&#x27;: &#x27;&#x27;, &#x27;gae&#x27;: None, &#x27;password&#x27;: &#x27;******&#x27;, &#x27;request_queue_size&#x27;: 5, &#x27;ssl_certificate&#x27;: &#x27;&#x27;, &#x27;cronjob&#x27;: False, &#x27;numthreads&#x27;: None, &#x27;quiet&#x27;: False, &#x27;import_models&#x27;: False, &#x27;timeout&#x27;: 10, &#x27;plain&#x27;: False, &#x27;nobanner&#x27;: False}&gt;</div></td></tr><tr><td style="font-weight:bold;vertical-align:top;">db_sessions</td><td style="vertical-align:top;">:</td><td><div>set([])</div></td></tr><tr><td style="font-weight:bold;vertical-align:top;">debugging</td><td style="vertical-align:top;">:</td><td><div>True</div></td></tr><tr><td style="font-weight:bold;vertical-align:top;">gluon_parent</td><td style="vertical-align:top;">:</td><td><div>C:\\Users\\1229601\\Documents\\web2py</div></td></tr><tr><td style="font-weight:bold;vertical-align:top;">http_accept</td><td style="vertical-align:top;">:</td><td><div>text/html,application/xhtml+xml,application/xml;q=0.9,image/webp,*/*;q=0.8</div></td></tr><tr><td style="font-weight:bold;vertical-align:top;">http_accept_encoding</td><td style="vertical-align:top;">:</td><td><div>gzip, deflate, sdch</div></td></tr><tr><td style="font-weight:bold;vertical-align:top;">http_accept_language</td><td style="vertical-align:top;">:</td><td><div>es-419,es;q=0.8,en-US;q=0.6,en;q=0.4</div></td></tr><tr><td style="font-weight:bold;vertical-align:top;">http_cache_control</td><td style="vertical-align:top;">:</td><td><div>max-age=0</div></td></tr><tr><td style="font-weight:bold;vertical-align:top;">http_connection</td><td style="vertical-align:top;">:</td><td><div>keep-alive</div></td></tr><tr><td style="font-weight:bold;vertical-align:top;">http_cookie</td><td style="vertical-align:top;">:</td><td><div>session_id_welcome=127.0.0.1-843ba3b8-491f-411b-b7c3-1f0f55f98384; session_id_ascli=127.0.0.1-b7d08617-4b5c-4e8d-bf43-9c624331f637; session_id_admin=127.0.0.1-98ae030e-8486-4be5-9dde-2ffb30b07df8</div></td></tr><tr><td style="font-weight:bold;vertical-align:top;">http_host</td><td style="vertical-align:top;">:</td><td><div>127.0.0.1:8000</div></td></tr><tr><td style="font-weight:bold;vertical-align:top;">http_referer</td><td style="vertical-align:top;">:</td><td><div>http://127.0.0.1:8000/ascli/default/index</div></td></tr><tr><td style="font-weight:bold;vertical-align:top;">http_upgrade_insecure_requests</td><td style="vertical-align:top;">:</td><td><div>1</div></td></tr><tr><td style="font-weight:bold;vertical-align:top;">http_user_agent</td><td style="vertical-align:top;">:</td><td><div>Mozilla/5.0 (Windows NT 6.1; WOW64) AppleWebKit/537.36 (KHTML, like Gecko) Chrome/52.0.2743.116 Safari/537.36</div></td></tr><tr><td style="font-weight:bold;vertical-align:top;">is_jython</td><td style="vertical-align:top;">:</td><td><div>False</div></td></tr><tr><td style="font-weight:bold;vertical-align:top;">is_pypy</td><td style="vertical-align:top;">:</td><td><div>False</div></td></tr><tr><td style="font-weight:bold;vertical-align:top;">is_source</td><td style="vertical-align:top;">:</td><td><div>False</div></td></tr><tr><td style="font-weight:bold;vertical-align:top;">local_hosts</td><td style="vertical-align:top;">:</td><td><div><table><tr><td><div>50HW002798</div></td></tr><tr><td><div>::ffff:127.0.0.1</div></td></tr><tr><td><div>::1</div></td></tr><tr><td><div>fe80::2c50:c355:c8ac:3190%13</div></td></tr><tr><td><div>172.17.80.51</div></td></tr><tr><td><div>50HW002798.SOAM.TCS.com</div></td></tr><tr><td><div>127.0.0.1</div></td></tr></table></div></td></tr><tr><td style="font-weight:bold;vertical-align:top;">path_info</td><td style="vertical-align:top;">:</td><td><div>/ascli/ventas/index</div></td></tr><tr><td style="font-weight:bold;vertical-align:top;">query_string</td><td style="vertical-align:top;">:</td><td><div></div></td></tr><tr><td style="font-weight:bold;vertical-align:top;">remote_addr</td><td style="vertical-align:top;">:</td><td><div>127.0.0.1</div></td></tr><tr><td style="font-weight:bold;vertical-align:top;">remote_port</td><td style="vertical-align:top;">:</td><td><div>61216</div></td></tr><tr><td style="font-weight:bold;vertical-align:top;">request_method</td><td style="vertical-align:top;">:</td><td><div>GET</div></td></tr><tr><td style="font-weight:bold;vertical-align:top;">request_uri</td><td style="vertical-align:top;">:</td><td><div>/ascli/ventas/index</div></td></tr><tr><td style="font-weight:bold;vertical-align:top;">script_name</td><td style="vertical-align:top;">:</td><td><div></div></td></tr><tr><td style="font-weight:bold;vertical-align:top;">server_name</td><td style="vertical-align:top;">:</td><td><div>50HW002798</div></td></tr><tr><td style="font-weight:bold;vertical-align:top;">server_port</td><td style="vertical-align:top;">:</td><td><div>8000</div></td></tr><tr><td style="font-weight:bold;vertical-align:top;">server_protocol</td><td style="vertical-align:top;">:</td><td><div>HTTP/1.1</div></td></tr><tr><td style="font-weight:bold;vertical-align:top;">server_software</td><td style="vertical-align:top;">:</td><td><div>Rocket 1.2.6</div></td></tr><tr><td style="font-weight:bold;vertical-align:top;">web2py_path</td><td style="vertical-align:top;">:</td><td><div>C:\\Users\\1229601\\Documents\\web2py</div></td></tr><tr><td style="font-weight:bold;vertical-align:top;">web2py_version</td><td style="vertical-align:top;">:</td><td><div>2.14.6-stable+timestamp.2016.05.10.00.21.47</div></td></tr><tr><td style="font-weight:bold;vertical-align:top;">wsgi.errors</td><td style="vertical-align:top;">:</td><td><div>&lt;open file &#x27;&lt;stderr&gt;&#x27;, mode &#x27;w&#x27; at 0x01F0D0D0&gt;</div></td></tr><tr><td style="font-weight:bold;vertical-align:top;">wsgi.file_wrapper</td><td style="vertical-align:top;">:</td><td><div>&lt;class wsgiref.util.FileWrapper at 0x036DF260&gt;</div></td></tr><tr><td style="font-weight:bold;vertical-align:top;">wsgi.input</td><td style="vertical-align:top;">:</td><td><div>&lt;socket._fileobject object at 0x0611FC70&gt;</div></td></tr><tr><td style="font-weight:bold;vertical-align:top;">wsgi.multiprocess</td><td style="vertical-align:top;">:</td><td><div>False</div></td></tr><tr><td style="font-weight:bold;vertical-align:top;">wsgi.multithread</td><td style="vertical-align:top;">:</td><td><div>True</div></td></tr><tr><td style="font-weight:bold;vertical-align:top;">wsgi.run_once</td><td style="vertical-align:top;">:</td><td><div>False</div></td></tr><tr><td style="font-weight:bold;vertical-align:top;">wsgi.url_scheme</td><td style="vertical-align:top;">:</td><td><div>http</div></td></tr><tr><td style="font-weight:bold;vertical-align:top;">wsgi.version</td><td style="vertical-align:top;">:</td><td><div><table><tr><td><div>1</div></td></tr><tr><td><div>0</div></td></tr></table></div></td></tr><tr><td style="font-weight:bold;vertical-align:top;">wsgi_errors</td><td style="vertical-align:top;">:</td><td><div>&lt;open file &#x27;&lt;stderr&gt;&#x27;, mode &#x27;w&#x27; at 0x01F0D0D0&gt;</div></td></tr><tr><td style="font-weight:bold;vertical-align:top;">wsgi_file_wrapper</td><td style="vertical-align:top;">:</td><td><div>&lt;class wsgiref.util.FileWrapper at 0x036DF260&gt;</div></td></tr><tr><td style="font-weight:bold;vertical-align:top;">wsgi_input</td><td style="vertical-align:top;">:</td><td><div>&lt;socket._fileobject object at 0x0611FC70&gt;</div></td></tr><tr><td style="font-weight:bold;vertical-align:top;">wsgi_multiprocess</td><td style="vertical-align:top;">:</td><td><div>False</div></td></tr><tr><td style="font-weight:bold;vertical-align:top;">wsgi_multithread</td><td style="vertical-align:top;">:</td><td><div>True</div></td></tr><tr><td style="font-weight:bold;vertical-align:top;">wsgi_run_once</td><td style="vertical-align:top;">:</td><td><div>False</div></td></tr><tr><td style="font-weight:bold;vertical-align:top;">wsgi_url_scheme</td><td style="vertical-align:top;">:</td><td><div>http</div></td></tr><tr><td style="font-weight:bold;vertical-align:top;">wsgi_version</td><td style="vertical-align:top;">:</td><td><div><table><tr><td><div>1</div></td></tr><tr><td><div>0</div></td></tr></table></div></td></tr></table></div></td></tr><tr><td style="font-weight:bold;vertical-align:top;">extension</td><td style="vertical-align:top;">:</td><td><div>html</div></td></tr><tr><td style="font-weight:bold;vertical-align:top;">folder</td><td style="vertical-align:top;">:</td><td><div>C:\\Users\\1229601\\Documents\\web2py\\applications\\ascli\\</div></td></tr><tr><td style="font-weight:bold;vertical-align:top;">function</td><td style="vertical-align:top;">:</td><td><div>index</div></td></tr><tr><td style="font-weight:bold;vertical-align:top;">global_settings</td><td style="vertical-align:top;">:</td><td><div><table><tr><td style="font-weight:bold;vertical-align:top;">app_folders</td><td style="vertical-align:top;">:</td><td><div>set([&#x27;C:\\\\Users\\\\1229601\\\\Documents\\\\web2py\\\\applications\\\\welcome\\\\&#x27;, &#x27;C:\\\\Users\\\\1229601\\\\Documents\\\\web2py\\\\applications\\\\admin\\\\&#x27;, &#x27;C:\\\\Users\\\\1229601\\\\Documents\\\\web2py\\\\applications\\\\ascli\\\\&#x27;])</div></td></tr><tr><td style="font-weight:bold;vertical-align:top;">applications_parent</td><td style="vertical-align:top;">:</td><td><div>C:\\Users\\1229601\\Documents\\web2py</div></td></tr><tr><td style="font-weight:bold;vertical-align:top;">cmd_args</td><td style="vertical-align:top;">:</td><td><div><table></table></div></td></tr><tr><td style="font-weight:bold;vertical-align:top;">cmd_options</td><td style="vertical-align:top;">:</td><td><div>&lt;Values at 0x3200fd0: {&#x27;verbose&#x27;: False, &#x27;ip&#x27;: &#x27;127.0.0.1&#x27;, &#x27;debuglevel&#x27;: 30, &#x27;with_scheduler&#x27;: False, &#x27;shutdown_timeout&#x27;: 5, &#x27;taskbar&#x27;: False, &#x27;with_coverage&#x27;: False, &#x27;pid_filename&#x27;: &#x27;httpserver.pid&#x27;, &#x27;maxthreads&#x27;: None, &#x27;softcron&#x27;: False, &#x27;server_name&#x27;: &#x27;50HW002798&#x27;, &#x27;bpython&#x27;: False, &#x27;nogui&#x27;: False, &#x27;port&#x27;: 8000, &#x27;print_errors&#x27;: False, &#x27;extcron&#x27;: False, &#x27;runcron&#x27;: False, &#x27;run_system_tests&#x27;: False, &#x27;test&#x27;: None, &#x27;folder&#x27;: &#x27;C:\\\\Users\\\\1229601\\\\Documents\\\\web2py&#x27;, &#x27;config&#x27;: &#x27;&#x27;, &#x27;minthreads&#x27;: None, &#x27;shell&#x27;: None, &#x27;run&#x27;: &#x27;&#x27;, &#x27;log_filename&#x27;: &#x27;httpserver.log&#x27;, &#x27;profiler_dir&#x27;: None, &#x27;args&#x27;: [&#x27;&#x27;], &#x27;socket_timeout&#x27;: 5, &#x27;ssl_ca_certificate&#x27;: None, &#x27;scheduler&#x27;: None, &#x27;interfaces&#x27;: None, &#x27;ssl_private_key&#x27;: &#x27;&#x27;, &#x27;gae&#x27;: None, &#x27;password&#x27;: &#x27;******&#x27;, &#x27;request_queue_size&#x27;: 5, &#x27;ssl_certificate&#x27;: &#x27;&#x27;, &#x27;cronjob&#x27;: False, &#x27;numthreads&#x27;: None, &#x27;quiet&#x27;: False, &#x27;import_models&#x27;: False, &#x27;timeout&#x27;: 10, &#x27;plain&#x27;: False, &#x27;nobanner&#x27;: False}&gt;</div></td></tr><tr><td style="font-weight:bold;vertical-align:top;">db_sessions</td><td style="vertical-align:top;">:</td><td><div>set([])</div></td></tr><tr><td style="font-weight:bold;vertical-align:top;">debugging</td><td style="vertical-align:top;">:</td><td><div>True</div></td></tr><tr><td style="font-weight:bold;vertical-align:top;">gluon_parent</td><td style="vertical-align:top;">:</td><td><div>C:\\Users\\1229601\\Documents\\web2py</div></td></tr><tr><td style="font-weight:bold;vertical-align:top;">is_jython</td><td style="vertical-align:top;">:</td><td><div>False</div></td></tr><tr><td style="font-weight:bold;vertical-align:top;">is_pypy</td><td style="vertical-align:top;">:</td><td><div>False</div></td></tr><tr><td style="font-weight:bold;vertical-align:top;">is_source</td><td style="vertical-align:top;">:</td><td><div>False</div></td></tr><tr><td style="font-weight:bold;vertical-align:top;">local_hosts</td><td style="vertical-align:top;">:</td><td><div><table><tr><td><div>50HW002798</div></td></tr><tr><td><div>::ffff:127.0.0.1</div></td></tr><tr><td><div>::1</div></td></tr><tr><td><div>fe80::2c50:c355:c8ac:3190%13</div></td></tr><tr><td><div>172.17.80.51</div></td></tr><tr><td><div>50HW002798.SOAM.TCS.com</div></td></tr><tr><td><div>127.0.0.1</div></td></tr></table></div></td></tr><tr><td style="font-weight:bold;vertical-align:top;">web2py_version</td><td style="vertical-align:top;">:</td><td><div>2.14.6-stable+timestamp.2016.05.10.00.21.47</div></td></tr></table></div></td></tr><tr><td style="font-weight:bold;vertical-align:top;">is_https</td><td style="vertical-align:top;">:</td><td><div>False</div></td></tr><tr><td style="font-weight:bold;vertical-align:top;">is_local</td><td style="vertical-align:top;">:</td><td><div>True</div></td></tr><tr><td style="font-weight:bold;vertical-align:top;">is_restful</td><td style="vertical-align:top;">:</td><td><div>False</div></td></tr><tr><td style="font-weight:bold;vertical-align:top;">is_scheduler</td><td style="vertical-align:top;">:</td><td><div>False</div></td></tr><tr><td style="font-weight:bold;vertical-align:top;">is_shell</td><td style="vertical-align:top;">:</td><td><div>False</div></td></tr><tr><td style="font-weight:bold;vertical-align:top;">now</td><td style="vertical-align:top;">:</td><td><div>datetime.datetime(2016, 9, 14, 12, 28, 29, 76000)</div></td></tr><tr><td style="font-weight:bold;vertical-align:top;">raw_args</td><td style="vertical-align:top;">:</td><td><div></div></td></tr><tr><td style="font-weight:bold;vertical-align:top;">raw_extension</td><td style="vertical-align:top;">:</td><td><div>None</div></td></tr><tr><td style="font-weight:bold;vertical-align:top;">url</td><td style="vertical-align:top;">:</td><td><div>/ascli/ventas/index</div></td></tr><tr><td style="font-weight:bold;vertical-align:top;">utcnow</td><td style="vertical-align:top;">:</td><td><div>datetime.datetime(2016, 9, 14, 17, 28, 29, 76000)</div></td></tr><tr><td style="font-weight:bold;vertical-align:top;">wsgi</td><td style="vertical-align:top;">:</td><td><div>&lt;gluon.main.LazyWSGI object at 0x094EC590&gt;</div></td></tr></table></div>'
tRp58
sS'frames'
p59
(lp60
(dp61
S'file'
p62
S'C:\\Users\\1229601\\Documents\\web2py\\gluon\\restricted.py'
p63
sS'dump'
p64
(dp65
S'environment'
p66
S"{'A': <class 'gluon.html.A'>, 'ANY_OF': <class 'gluon.validators.ANY_OF'>, 'ASSIGNJS': <function ASSIGNJS>, 'AppConfig': <function AppConfig>, 'Auth': <class 'gluon.tools.Auth'>, 'B': <class 'gluon.html.B'>, 'BEAUTIFY': <class 'gluon.html.BEAUTIFY'>, 'BODY': <class 'gluon.html.BODY'>, 'BR': <class 'gluon.html.BR'>, 'BUTTON': <class 'gluon.html.BUTTON'>, ...}"
p67
sS'ccode'
p68
S'<code object <module> at 094D5338, file "C:\\User...lications\\ascli\\views\\ventas/index.html", line 1>'
p69
ssS'lnum'
p70
I227
sS'lines'
p71
(dp72
I224
S'            ccode = code'
p73
sI225
S'        else:'
p74
sI226
S'            ccode = compile2(code, layer)'
p75
sI227
S'        exec ccode in environment'
p76
sI228
S'    except HTTP:'
p77
sI229
S'        raise'
p78
sI230
S'    except RestrictedError:'
p79
sI231
S'        # do not encapsulate (obfuscate) the original RestrictedError'
p80
sI222
S'    try:'
p81
sI223
S'        if isinstance(code, types.CodeType):'
p82
ssS'call'
p83
S'(code=\'response.write(\\\'<!DOCTYPE html>\\\\n<!--[if (gt IE ..."></script>\\\\n  </body>\\\\n</html>\\\\n\\\', escape=False)\', environment={\'A\': <class \'gluon.html.A\'>, \'ANY_OF\': <class \'gluon.validators.ANY_OF\'>, \'ASSIGNJS\': <function ASSIGNJS>, \'AppConfig\': <function AppConfig>, \'Auth\': <class \'gluon.tools.Auth\'>, \'B\': <class \'gluon.html.B\'>, \'BEAUTIFY\': <class \'gluon.html.BEAUTIFY\'>, \'BODY\': <class \'gluon.html.BODY\'>, \'BR\': <class \'gluon.html.BR\'>, \'BUTTON\': <class \'gluon.html.BUTTON\'>, ...}, layer=r\'C:\\Users\\1229601\\Documents\\web2py\\applications\\ascli\\views\\ventas/index.html\')'
p84
sS'func'
p85
S'restricted'
p86
sa(dp87
g62
S'C:\\Users\\1229601\\Documents\\web2py\\applications\\ascli\\views\\ventas\\index.html'
p88
sg64
(dp89
S'builtintype'
p90
S"<type 'type'>"
p91
sS'script'
p92
S'undefined'
p93
ssg70
I95
sg71
(dp94
I96
S'response.write(\',\\r\\n        /* campos a mostrar */\\r\\n        columns: [\\r\\n            { data: \\\'IdProducto\\\' },\\r\\n            { data: \\\'NombreProducto\\\' },\\r\\n            { data: \\\'Cantidad\\\' },\\r\\n            { data: \\\'ValorTotalProducto\\\' },\\r\\n            { data: \\\'ValorIva\\\' },\\r\\n            { data: \\\'PorcentajeDescuento\\\' }\\r\\n            // \\\'id\\\' omitted to show that you can\\r\\n            // use only the fields you choose\\r\\n        ],\\r\\n        /* Botones a mostrar */\\r\\n       /* buttons: [\\r\\n            \\\'copy\\\', \\\'excel\\\', \\\'pdf\\\'\\r\\n        ],*/\\r\\n        /* Lenguaje de la tabla */\\r\\n        "language": {\\r\\n          /*  "url": "//cdn.datatables.net/plug-ins/9dcbecd42ad/i18n/Spanish.json" */\\r\\n            "url": "\', escape=False)'
p95
sI97
S"response.write(URL('static','json/Spanish.json'))"
p96
sI98
S'response.write(\'"\\r\\n        },\\r\\n        /* Propiedades de la tabla */\\r\\n        "scrollY":        "300px",\\r\\n        "scrollCollapse": true,\\r\\n        "paging": true,\\r\\n        "dom": \\\'T<"clear">lfrtip\\\',\\r\\n        "tableTools": {\\r\\n            "sSwfPath": "/swf/copy_csv_xls_pdf.swf"\\r\\n        }\\r\\n\\r\\n    }\\r\\n    );\\r\\n\\r\\n});\\r\\n\\r\\n/*var table = $(\\\'#venta\\\').DataTable();\\r\\n\\r\\ntable.ajax.reload( function ( json ) {\\r\\n    $(\\\'#cmdagregar\\\').val( json.lastInput );\\r\\n} );\\r\\n*/\\r\\n\\r\\n/*jQuery("#cmdagregar").keypress(function(){\\r\\n      ajax(\\\'refrescar_tabla\\\')});*/\\r\\n\\r\\n\\r\\n\\r\\n</script>\\r\\n\\r\\n\\r\\n\\r\\n<table id="tvender" class="display" cellspacing="0" width="100%">\\r\\n    <thead>\\r\\n        <tr>\\r\\n            <th style="text-align: right"><input id="cmdvender" type="button" value="Vender" /></th>\\r\\n        </tr>\\r\\n    </thead>\\r\\n</table>\\r\\n</div>\\r\\n\', escape=False)'
p97
sI99
S"response.write('\\n        ', escape=False)"
p98
sI100
S"response.write('\\n      </div>\\n\\n      ', escape=False)"
p99
sI101
S'if right_sidebar_enabled:'
p100
sI102
S'    response.write(\'\\n        <div class="col-md-3">\\n            \', escape=False)'
p101
sI103
S"    response.write('\\n            <h3>Right Sidebar</h3>\\n            <p></p>\\n            ', escape=False)"
p102
sI104
S"    response.write('\\n        </div>\\n      ', escape=False)"
p103
sI105
S'    pass'
p104
sI86
S'response.write(\'"/>\\r\\n<style>\\r\\n#sugerencias { position: relative; }\\r\\n.sugerencias { background: white; border: solid 1px #55A6C8; }\\r\\n.sugerencias DIV { padding: 2px 4px 2px 4px; }\\r\\n</style>\\r\\n\\r\\n\\r\\n<form id="frmproducto">\\r\\n    <div id="dcliente">\\r\\n        &nbsp;<table id="tcliente" style="width: 100%;">\\r\\n            <tr>\\r\\n                <td class="auto-style1">CLIENTE</td>\\r\\n                <td class="auto-style2">\\r\\n                    <input id="txtcliente" type="text" class="txtid" />\\r\\n                <td class="auto-style3">&nbsp;</td>\\r\\n                <td class="auto-style1">&nbsp;</td>\\r\\n                <td class="auto-style2">&nbsp;</td>\\r\\n                <td class="auto-style3">&nbsp;</td>\\r\\n                <td class="auto-style1">&nbsp;</td>\\r\\n                <td class="auto-style2">&nbsp;</td>\\r\\n            </tr>\\r\\n            <tr>\\r\\n                <td class="auto-style1">PRODUCTO</td>\\r\\n                <td class="auto-style2">\\r\\n                    <input id="txtproducto" type="text" class="txtid" />\\r\\n                <td class="auto-style3">&nbsp;</td>\\r\\n                <td class="auto-style1">CANTIDAD</td>\\r\\n                <td class="auto-style2">\\r\\n                    <input id="txtcantidad" type="text" class="txtCAN" />\\r\\n                </td>\\r\\n                <td class="auto-style3">&nbsp;</td>\\r\\n                <td class="auto-style1">DESCUENTO</td>\\r\\n                <td class="auto-style2">\\r\\n                    <input id="txtdescuento" type="text" class="txtCAN" />\\r\\n                </td>\\r\\n            </tr>\\r\\n            <tr>\\r\\n                <td class="auto-style1">&nbsp;</td>\\r\\n                <td class="auto-style2">&nbsp;</td>\\r\\n                <td class="auto-style3">&nbsp;</td>\\r\\n                <td class="auto-style1">&nbsp;</td>\\r\\n                <td class="auto-style2">&nbsp;</td>\\r\\n                <td class="auto-style3">&nbsp;</td>\\r\\n                <td class="auto-style1">&nbsp;</td>\\r\\n                <td class="auto-style2">\\r\\n                    <input id="cmdagregar" type="button" value="Agregar" /></td>\\r\\n            </tr>\\r\\n        </table>\\r\\n    </div>\\r\\n\\r\\n</form>\\r\\n\\r\\n<script>\\r\\n   /* jQuery("#mes").keyup(function(){\\r\\n        ajax(\\\'refrescar_tabla\\\', [\\\'mes\\\'], \\\'sugerencias\\\')});*/\\r\\n\\r\\n\\r\\n\\r\\n/* para agrear registros a la tabla temporal*/\\r\\n /*   jQuery(\\\'#frmproducto\\\').submit(function() {\\r\\n  ajax(\\\'\', escape=False)'
p105
sI87
S"response.write(URL('Agregar_Producto_Tabla'))"
p106
sI88
S'response.write(\'\\\',\\r\\n       [\\\'txtproducto\\\'], \\\'txtcantidad\\\', \\\'txtdescuento\\\');\\r\\n  return false;*/\\r\\n\\r\\n</script>\\r\\n\\r\\n<table id="venta" class="display" cellspacing="0" width="100%">\\r\\n    <thead>\\r\\n        <tr>\\r\\n            <th>C\\xc3\\xb3digo</th>\\r\\n            <th>Producto</th>\\r\\n            <th>Cantidad</th>\\r\\n            <th>Valor Total</th>\\r\\n            <th>Iva</th>\\r\\n            <th>% Descuento</th>\\r\\n        </tr>\\r\\n    </thead>\\r\\n</table>\\r\\n\\r\\n\\r\\n<script type="text/javascript">\\r\\n\\r\\n\\r\\n$(document).ready(function(){\\r\\n/* Funci\\xc3\\xb3n para mostrar un datatable de jquery    */\\r\\n\\r\\n    /*\\r\\n    $("#hijos").DataTable({\\r\\n        data:  \', escape=False)'
p107
sI89
S'response.write(results)'
p108
sI90
S'response.write(\',\\r\\n        columns: [\\r\\n            { data: \\\'first_name\\\' },\\r\\n            { data: \\\'last_name\\\' }\\r\\n            // \\\'id\\\' omitted to show that you can\\r\\n            // use only the fields you choose\\r\\n        ],\\r\\n        "language": {\\r\\n            "url": "//cdn.datatables.net/plug-ins/9dcbecd42ad/i18n/Spanish.json"\\r\\n        },\\r\\n        "scrollY":        "300px",\\r\\n        "scrollCollapse": true,\\r\\n        "paging": true\\r\\n    })\\r\\n    */\\r\\n\\r\\n    var table = $(\\\'#venta\\\').DataTable(\\r\\n    {\\r\\n\\r\\n        data:  \', escape=False)'
p109
sI91
S'response.write(results)'
p110
sI92
S'response.write(\',\\r\\n        /* campos a mostrar */\\r\\n        columns: [\\r\\n            { data: \\\'IdProducto\\\' },\\r\\n            { data: \\\'NombreProducto\\\' },\\r\\n            { data: \\\'Cantidad\\\' },\\r\\n            { data: \\\'ValorTotalProducto\\\' },\\r\\n            { data: \\\'ValorIva\\\' },\\r\\n            { data: \\\'PorcentajeDescuento\\\' }\\r\\n            // \\\'id\\\' omitted to show that you can\\r\\n            // use only the fields you choose\\r\\n        ],\\r\\n        /* Botones a mostrar */\\r\\n       /* buttons: [\\r\\n            \\\'copy\\\', \\\'excel\\\', \\\'pdf\\\'\\r\\n        ],*/\\r\\n        /* Lenguaje de la tabla */\\r\\n        "language": {\\r\\n          /*  "url": "//cdn.datatables.net/plug-ins/9dcbecd42ad/i18n/Spanish.json" */\\r\\n            "url": "\', escape=False)'
p111
sI93
S"response.write(URL('static','json/Spanish.json'))"
p112
sI94
S'response.write(\'"\\r\\n        },\\r\\n        /* Propiedades de la tabla */\\r\\n        "scrollY":        "300px",\\r\\n        "scrollCollapse": true,\\r\\n        "paging": true,\\r\\n        "dom": \\\'T<"clear">lfrtip\\\',\\r\\n        "tableTools": {\\r\\n            "sSwfPath": "/swf/copy_csv_xls_pdf.swf"\\r\\n        }\\r\\n\\r\\n    }\\r\\n    );\\r\\n\\r\\n    /* Para habilitar la selecci\\xc3\\xb3n de un solo registro en la tabla */\\r\\n    $(\\\'#venta tbody\\\').on( \\\'click\\\', \\\'tr\\\', function () {\\r\\n        if ( $(this).hasClass(\\\'selected\\\') ) {\\r\\n            $(this).removeClass(\\\'selected\\\');\\r\\n        }\\r\\n        else {\\r\\n            table.$(\\\'tr.selected\\\').removeClass(\\\'selected\\\');\\r\\n            $(this).addClass(\\\'selected\\\');\\r\\n        }\\r\\n    } );\\r\\n\\r\\n    $(\\\'#button\\\').click( function () {\\r\\n        table.row(\\\'.selected\\\').remove().draw( false );\\r\\n    } );\\r\\n\\r\\n/*\\r\\n    $(\\\'#cmdagregar\\\').on( \\\'click\\\', function()\\r\\n    {\\r\\n\\r\\n            table.row.add(\\r\\n            [{\\r\\n                "IdProducto": "345",\\r\\n                "PorcentajeDescuento": "5",\\r\\n                "Cantidad": "5",\\r\\n                "NombreProducto": "sdfds",\\r\\n                "ValorIva": "4",\\r\\n                "ValorTotalProducto": "45"\\r\\n            }\\r\\n\\r\\n\\r\\n          /*db.Field(\\\'IdVenta\\\', type=\\\'double\\\', label=T(u\\\'IdVenta\\\'),comment=\\\'xxx\\\'),\\r\\n            db.Field(\\\'IdProducto\\\', type=\\\'double\\\', label=T(u\\\'IdProducto\\\'),comment=\\\'xxx\\\'),\\r\\n            db.Field(\\\'NombreProducto\\\', type=\\\'text\\\', label=T(u\\\'NombreProducto\\\'),comment=\\\'xxx\\\'),\\r\\n            db.Field(\\\'IdUbicacion\\\', type=\\\'text\\\', length=2, label=T(u\\\'IdUbicacion\\\'),comment=\\\'xxx\\\'),\\r\\n            db.Field(\\\'Cantidad\\\', type=\\\'double\\\', label=T(u\\\'Cantidad\\\'),comment=\\\'xxx\\\'),\\r\\n            db.Field(\\\'ValorTotalProducto\\\', type=\\\'double\\\', label=T(u\\\'ValorTotalProducto\\\'),comment=\\\'xxx\\\'),\\r\\n            db.Field(\\\'ValorIva\\\', type=\\\'double\\\', label=T(u\\\'ValorIva\\\'),comment=\\\'xxx\\\'),\\r\\n            db.Field(\\\'PorcentajeDescuento\\\', type=\\\'double\\\', label=T(u\\\'PorcentajeDescuento\\\'),comment=\\\'xxx\\\')\\r\\n                /*685.0, 2.0, 1.0, 5.0,  \\\'otro\\\',  3.0,  2.0, \\\'\\\',  1\\r\\n                \\\'6.0\\\', \\\'5.0\\\', "Comodoro", \\\'2.0\\\', \\\'2.0\\\', \\\'3.0\\\', \\\'685.0\\\' */\\r\\n               /* "IdVenta": "343",\\r\\n                "IdProducto": 343,\\r\\n                "NombreProducto": "System Architect",\\r\\n                "IdUbicacion": " ",\\r\\n                "Cantidad": "3",\\r\\n                "ValorTotalProducto": "20115",\\r\\n                "ValorIva": "23",\\r\\n                "PorcentajeDescuento": "5421"*//*\\r\\n\\r\\n            ]).draw();\\r\\n\\r\\n\\r\\n    });\\r\\n*/\\r\\n    /* Tomar la informaci\\xc3\\xb3n de la fila */\\r\\n     $(\\\'#venta tbody\\\').on(\\\'click\\\', \\\'tr\\\', function () {\\r\\n        var codigo = $(\\\'td\\\', this).eq(0).text();\\r\\n\\r\\n        var nombre = $(\\\'td\\\', this).eq(1).text();\\r\\n        alert( \\\'C\\xc3\\xb3digo del cliente \\\'+codigo+\\\' \\\'+\\\'Nombre \\\'+nombre);\\r\\n\\r\\n    } );\\r\\n\\r\\n});\\r\\n\\r\\n$(\\\'#cmdagregar\\\').on( \\\'click\\\', function()\\r\\n{\\r\\najax(\\\'refrescar_tabla\\\',\\\'\\\',\\\'results2\\\')\\r\\n var table = $(\\\'#venta\\\').DataTable(\\r\\n    {\\r\\n\\r\\n        data:  \', escape=False)'
p113
sI95
S'response.write(results2)'
p114
ssg83
S'()'
p115
sg85
S'<module>'
p116
sasS'pyver'
p117
S'Python 2.7.9: C:\\Users\\1229601\\Documents\\web2py\\web2py.exe (prefix: C:\\Python27)'
p118
sS'session'
p119
g57
(S's\x1a\x00\x00\x00<div><table></table></div>'
tRp120
sS'etype'
p121
S"<type 'exceptions.NameError'>"
p122
sS'date'
p123
S'Wed Sep 14 12:28:29 2016'
p124
sS'response'
p125
g57
(S's\x1c+\x00\x00<div><table><tr><td style="font-weight:bold;vertical-align:top;">body</td><td style="vertical-align:top;">:</td><td><div>&lt;cStringIO.StringO object at 0x094EC140&gt;</div></td></tr><tr><td style="font-weight:bold;vertical-align:top;">cookies</td><td style="vertical-align:top;">:</td><td><div><table><tr><td style="font-weight:bold;vertical-align:top;">session_id_ascli</td><td style="vertical-align:top;">:</td><td><div>127.0.0.1-b7d08617-4b5c-4e8d-bf43-9c624331f637<table><tr><td style="font-weight:bold;vertical-align:top;">comment</td><td style="vertical-align:top;">:</td><td><div></div></td></tr><tr><td style="font-weight:bold;vertical-align:top;">domain</td><td style="vertical-align:top;">:</td><td><div></div></td></tr><tr><td style="font-weight:bold;vertical-align:top;">expires</td><td style="vertical-align:top;">:</td><td><div></div></td></tr><tr><td style="font-weight:bold;vertical-align:top;">httponly</td><td style="vertical-align:top;">:</td><td><div></div></td></tr><tr><td style="font-weight:bold;vertical-align:top;">max-age</td><td style="vertical-align:top;">:</td><td><div></div></td></tr><tr><td style="font-weight:bold;vertical-align:top;">path</td><td style="vertical-align:top;">:</td><td><div>/</div></td></tr><tr><td style="font-weight:bold;vertical-align:top;">secure</td><td style="vertical-align:top;">:</td><td><div></div></td></tr><tr><td style="font-weight:bold;vertical-align:top;">version</td><td style="vertical-align:top;">:</td><td><div></div></td></tr></table></div></td></tr></table></div></td></tr><tr><td style="font-weight:bold;vertical-align:top;">delimiters</td><td style="vertical-align:top;">:</td><td><div><table><tr><td><div>{{</div></td></tr><tr><td><div>}}</div></td></tr></table></div></td></tr><tr><td style="font-weight:bold;vertical-align:top;">files</td><td style="vertical-align:top;">:</td><td><div><table><tr><td><div>/ascli/static/js/jquery.js</div></td></tr><tr><td><div>/ascli/static/css/calendar.css</div></td></tr><tr><td><div>/ascli/static/js/calendar.js</div></td></tr><tr><td><div>/ascli/static/js/web2py.js</div></td></tr></table></div></td></tr><tr><td style="font-weight:bold;vertical-align:top;">flash</td><td style="vertical-align:top;">:</td><td><div></div></td></tr><tr><td style="font-weight:bold;vertical-align:top;">form_label_separator</td><td style="vertical-align:top;">:</td><td><div></div></td></tr><tr><td style="font-weight:bold;vertical-align:top;">formstyle</td><td style="vertical-align:top;">:</td><td><div>bootstrap3_inline</div></td></tr><tr><td style="font-weight:bold;vertical-align:top;">generic_patterns</td><td style="vertical-align:top;">:</td><td><div><table><tr><td><div>*</div></td></tr></table></div></td></tr><tr><td style="font-weight:bold;vertical-align:top;">google_analytics_id</td><td style="vertical-align:top;">:</td><td><div>None</div></td></tr><tr><td style="font-weight:bold;vertical-align:top;">headers</td><td style="vertical-align:top;">:</td><td><div><table><tr><td style="font-weight:bold;vertical-align:top;">X-Powered-By</td><td style="vertical-align:top;">:</td><td><div>web2py</div></td></tr></table></div></td></tr><tr><td style="font-weight:bold;vertical-align:top;">logo</td><td style="vertical-align:top;">:</td><td><div><a class="navbar-brand" href="http://www.web2py.com/" id="web2py-logo"><b>web<span>2</span>py</b>&trade;&nbsp;</a></div></td></tr><tr><td style="font-weight:bold;vertical-align:top;">menu</td><td style="vertical-align:top;">:</td><td><div><table><tr><td><div><table><tr><td><div>Acciones</div></td></tr><tr><td><div>False</div></td></tr><tr><td><div>#</div></td></tr><tr><td><div><table><tr><td><div><table><tr><td><div>Vender</div></td></tr><tr><td><div>False</div></td></tr><tr><td><div>/ascli/ventas/index</div></td></tr><tr><td><div>[]</div></td></tr></table></div></td></tr><tr><td><div><table><tr><td><div>Comprar</div></td></tr><tr><td><div>False</div></td></tr><tr><td><div>/ascli/compras/index</div></td></tr><tr><td><div>[]</div></td></tr></table></div></td></tr><tr><td><div><table><tr><td><div>Prueba</div></td></tr><tr><td><div>False</div></td></tr><tr><td><div>/ascli/person/index</div></td></tr><tr><td><div>[]</div></td></tr></table></div></td></tr></table></div></td></tr></table></div></td></tr><tr><td><div><table><tr><td><div>Maestros</div></td></tr><tr><td><div>False</div></td></tr><tr><td><div>#</div></td></tr><tr><td><div><table><tr><td><div><table><tr><td><div>Productos</div></td></tr><tr><td><div>False</div></td></tr><tr><td><div>/ascli/productos/index</div></td></tr><tr><td><div>[]</div></td></tr></table></div></td></tr><tr><td><div><table><tr><td><div>Clientes</div></td></tr><tr><td><div>False</div></td></tr><tr><td><div>/ascli/clientes/index</div></td></tr><tr><td><div>[]</div></td></tr></table></div></td></tr><tr><td><div><table><tr><td><div>Poveedores</div></td></tr><tr><td><div>False</div></td></tr><tr><td><div>/ascli/proveedores/index</div></td></tr><tr><td><div>[]</div></td></tr></table></div></td></tr><tr><td><div><table><tr><td><div>Empleados</div></td></tr><tr><td><div>False</div></td></tr><tr><td><div>/ascli/empleados/index</div></td></tr><tr><td><div>[]</div></td></tr></table></div></td></tr></table></div></td></tr></table></div></td></tr><tr><td><div><table><tr><td><div>Del Negocio</div></td></tr><tr><td><div>False</div></td></tr><tr><td><div>#</div></td></tr><tr><td><div><table><tr><td><div><table><tr><td><div>Categorias Productos</div></td></tr><tr><td><div>False</div></td></tr><tr><td><div>/ascli/categorias_productos/index</div></td></tr><tr><td><div>[]</div></td></tr></table></div></td></tr><tr><td><div><table><tr><td><div>Cargo</div></td></tr><tr><td><div>False</div></td></tr><tr><td><div>/ascli/cargo/index</div></td></tr><tr><td><div>[]</div></td></tr></table></div></td></tr><tr><td><div><table><tr><td><div>Gastos</div></td></tr><tr><td><div>False</div></td></tr><tr><td><div>/ascli/gastos/index</div></td></tr><tr><td><div>[]</div></td></tr></table></div></td></tr><tr><td><div><table><tr><td><div>Permisos</div></td></tr><tr><td><div>False</div></td></tr><tr><td><div>/ascli/permisos/index</div></td></tr><tr><td><div>[]</div></td></tr></table></div></td></tr><tr><td><div><table><tr><td><div>Estado</div></td></tr><tr><td><div>False</div></td></tr><tr><td><div>/ascli/estado/index</div></td></tr><tr><td><div>[]</div></td></tr></table></div></td></tr><tr><td><div><table><tr><td><div>Periodo pagos</div></td></tr><tr><td><div>False</div></td></tr><tr><td><div>/ascli/periodo_pagos/index</div></td></tr><tr><td><div>[]</div></td></tr></table></div></td></tr><tr><td><div><table><tr><td><div>Tipo Ubicaci\xc3\xb3n</div></td></tr><tr><td><div>False</div></td></tr><tr><td><div>/ascli/tipo_ubicacion/index</div></td></tr><tr><td><div>[]</div></td></tr></table></div></td></tr><tr><td><div><table><tr><td><div>Turno Empleado</div></td></tr><tr><td><div>False</div></td></tr><tr><td><div>/ascli/turno_empleado/index</div></td></tr><tr><td><div>[]</div></td></tr></table></div></td></tr></table></div></td></tr></table></div></td></tr></table></div></td></tr><tr><td style="font-weight:bold;vertical-align:top;">meta</td><td style="vertical-align:top;">:</td><td><div><table><tr><td style="font-weight:bold;vertical-align:top;">author</td><td style="vertical-align:top;">:</td><td><div>Your Name &lt;you@example.com&gt;</div></td></tr><tr><td style="font-weight:bold;vertical-align:top;">description</td><td style="vertical-align:top;">:</td><td><div>a cool new app</div></td></tr><tr><td style="font-weight:bold;vertical-align:top;">generator</td><td style="vertical-align:top;">:</td><td><div>Web2py Web Framework</div></td></tr><tr><td style="font-weight:bold;vertical-align:top;">keywords</td><td style="vertical-align:top;">:</td><td><div>web2py, python, framework</div></td></tr></table></div></td></tr><tr><td style="font-weight:bold;vertical-align:top;">models_to_run</td><td style="vertical-align:top;">:</td><td><div><table><tr><td><div>^\\w+\\.py$</div></td></tr><tr><td><div>^ventas/\\w+\\.py$</div></td></tr><tr><td><div>^ventas/index/\\w+\\.py$</div></td></tr></table></div></td></tr><tr><td style="font-weight:bold;vertical-align:top;">postprocessing</td><td style="vertical-align:top;">:</td><td><div><table></table></div></td></tr><tr><td style="font-weight:bold;vertical-align:top;">session_client</td><td style="vertical-align:top;">:</td><td><div>127.0.0.1</div></td></tr><tr><td style="font-weight:bold;vertical-align:top;">session_cookie_compression_level</td><td style="vertical-align:top;">:</td><td><div>None</div></td></tr><tr><td style="font-weight:bold;vertical-align:top;">session_cookie_expires</td><td style="vertical-align:top;">:</td><td><div>None</div></td></tr><tr><td style="font-weight:bold;vertical-align:top;">session_data_name</td><td style="vertical-align:top;">:</td><td><div>session_data_ascli</div></td></tr><tr><td style="font-weight:bold;vertical-align:top;">session_file</td><td style="vertical-align:top;">:</td><td><div>&lt;open file &#x27;C:\\\\Users\\\\1229601\\\\Documents\\\\web2py\\\\applications\\\\ascli\\\\sessions\\\\05c\\\\1b9\\\\127.0.0.1-b7d08617-4b5c-4e8d-bf43-9c624331f637&#x27;, mode &#x27;rb+&#x27; at 0x05E51B78&gt;</div></td></tr><tr><td style="font-weight:bold;vertical-align:top;">session_filename</td><td style="vertical-align:top;">:</td><td><div>C:\\Users\\1229601\\Documents\\web2py\\applications\\ascli\\sessions\\127.0.0.1-b7d08617-4b5c-4e8d-bf43-9c624331f637</div></td></tr><tr><td style="font-weight:bold;vertical-align:top;">session_hash</td><td style="vertical-align:top;">:</td><td><div>6e5bc47368aff6e8632b4fc0488c6848</div></td></tr><tr><td style="font-weight:bold;vertical-align:top;">session_id</td><td style="vertical-align:top;">:</td><td><div>127.0.0.1-b7d08617-4b5c-4e8d-bf43-9c624331f637</div></td></tr><tr><td style="font-weight:bold;vertical-align:top;">session_id_name</td><td style="vertical-align:top;">:</td><td><div>session_id_ascli</div></td></tr><tr><td style="font-weight:bold;vertical-align:top;">session_locked</td><td style="vertical-align:top;">:</td><td><div>True</div></td></tr><tr><td style="font-weight:bold;vertical-align:top;">session_masterapp</td><td style="vertical-align:top;">:</td><td><div>ascli</div></td></tr><tr><td style="font-weight:bold;vertical-align:top;">session_new</td><td style="vertical-align:top;">:</td><td><div>False</div></td></tr><tr><td style="font-weight:bold;vertical-align:top;">session_storage_type</td><td style="vertical-align:top;">:</td><td><div>file</div></td></tr><tr><td style="font-weight:bold;vertical-align:top;">status</td><td style="vertical-align:top;">:</td><td><div>200</div></td></tr><tr><td style="font-weight:bold;vertical-align:top;">subtitle</td><td style="vertical-align:top;">:</td><td><div></div></td></tr><tr><td style="font-weight:bold;vertical-align:top;">title</td><td style="vertical-align:top;">:</td><td><div>Ascli</div></td></tr><tr><td style="font-weight:bold;vertical-align:top;">view</td><td style="vertical-align:top;">:</td><td><div>ventas/index.html</div></td></tr></table></div>'
tRp126
sS'locals'
p127
(dp128
S'Service'
p129
S"<class 'gluon.tools.Service'>"
p130
sS'OBJECT'
p131
S"<class 'gluon.html.OBJECT'>"
p132
sS'results'
p133
S'<gluon.html.XML object>'
p134
sS'SQLDB'
p135
S"<class 'pydal.base.DAL'>"
p136
sg119
S"<Storage {'_web2py_grid_referrer_web2py_grid': '/ascli/productos/index/tbProductos'}>"
p137
sS'LINK'
p138
S"<class 'gluon.html.LINK'>"
p139
sS'BR'
p140
S"<class 'gluon.html.BR'>"
p141
sS'local_import'
p142
S'<function <lambda>>'
p143
sS'OPTGROUP'
p144
S"<class 'gluon.html.OPTGROUP'>"
p145
sS'__package__'
p146
S'None'
p147
sS'PRE'
p148
S"<class 'gluon.html.PRE'>"
p149
sS'IS_INT_IN_RANGE'
p150
S"<class 'gluon.validators.IS_INT_IN_RANGE'>"
p151
sS'left_sidebar_enabled'
p152
S'False'
p153
sS'IS_LOWER'
p154
S"<class 'gluon.validators.IS_LOWER'>"
p155
sS'IS_STRONG'
p156
S"<class 'gluon.validators.IS_STRONG'>"
p157
sS'cache'
p158
S'<gluon.cache.Cache object>'
p159
sS'IS_IN_DB'
p160
S"<class 'gluon.validators.IS_IN_DB'>"
p161
sS'TAG'
p162
S'<gluon.html.__TAG__ object>'
p163
sS'SQLField'
p164
S"<class 'pydal.objects.Field'>"
p165
sS'mail'
p166
S'<gluon.tools.Mail object>'
p167
sS'BODY'
p168
S"<class 'gluon.html.BODY'>"
p169
sS'IS_DATE_IN_RANGE'
p170
S"<class 'gluon.validators.IS_DATE_IN_RANGE'>"
p171
sS'IFRAME'
p172
S"<class 'gluon.html.IFRAME'>"
p173
sS'URL'
p174
S'<function URL>'
p175
sS'__file__'
p176
S"r'C:\\Users\\1229601\\Documents\\web2py\\applications\\ascli\\views\\ventas/index.html'"
p177
sS'db'
p178
S'<DAL uri="sqlite://storage.sqlite">'
p179
sS'auth'
p180
S'<gluon.tools.Auth object>'
p181
sS'P'
S"<class 'gluon.html.P'>"
p182
sS'TFOOT'
p183
S"<class 'gluon.html.TFOOT'>"
p184
sS'XHTML'
p185
S"<class 'gluon.html.XHTML'>"
p186
sS'ON'
p187
S'True'
p188
sS'OL'
p189
S"<class 'gluon.html.OL'>"
p190
sS'TEXTAREA'
p191
S"<class 'gluon.html.TEXTAREA'>"
p192
sS'MENU'
p193
S"<class 'gluon.html.MENU'>"
p194
sS'IS_IMAGE'
p195
S"<class 'gluon.validators.IS_IMAGE'>"
p196
sS'EM'
p197
S"<class 'gluon.html.EM'>"
p198
sS'CODE'
p199
S"<class 'gluon.html.CODE'>"
p200
sS'HTTP'
p201
S"<class 'gluon.http.HTTP'>"
p202
sS'HR'
p203
S"<class 'gluon.html.HR'>"
p204
sS'IS_DATETIME'
p205
S"<class 'gluon.validators.IS_DATETIME'>"
p206
sS'STYLE'
p207
S"<class 'gluon.html.STYLE'>"
p208
sS'LABEL'
p209
S"<class 'gluon.html.LABEL'>"
p210
sS'CLEANUP'
p211
S"<class 'gluon.validators.CLEANUP'>"
p212
sS'plugins'
p213
S'<gluon.tools.PluginManager object>'
p214
sS'SELECT'
p215
S"<class 'gluon.html.SELECT'>"
p216
sS'CENTER'
p217
S"<class 'gluon.html.CENTER'>"
p218
sS'Auth'
p219
S"<class 'gluon.tools.Auth'>"
p220
sS'DEVELOPMENT_MENU'
p221
g188
sS'__builtins__'
p222
S"{'ArithmeticError': <type 'exceptions.ArithmeticError'>, 'AssertionError': <type 'exceptions.AssertionError'>, 'AttributeError': <type 'exceptions.AttributeError'>, 'BaseException': <type 'exceptions.BaseException'>, 'BufferError': <type 'exceptions.BufferError'>, 'BytesWarning': <type 'exceptions.BytesWarning'>, 'DeprecationWarning': <type 'exceptions.DeprecationWarning'>, 'EOFError': <type 'exceptions.EOFError'>, 'Ellipsis': Ellipsis, 'EnvironmentError': <type 'exceptions.EnvironmentError'>, ...}"
p223
sS'HTML'
p224
S"<class 'gluon.html.HTML'>"
p225
sS'SQLFORM'
p226
S"<class 'gluon.sqlhtml.SQLFORM'>"
p227
sS'LOAD'
p228
S'<function LOAD>'
p229
sS'redirect'
p230
S'<function redirect>'
p231
sS'FIELDSET'
p232
S"<class 'gluon.html.FIELDSET'>"
p233
sS'IS_EQUAL_TO'
p234
S"<class 'gluon.validators.IS_EQUAL_TO'>"
p235
sS'embed64'
p236
S'<function embed64>'
p237
sS'IS_LIST_OF'
p238
S"<class 'gluon.validators.IS_LIST_OF'>"
p239
sS'INPUT'
p240
S"<class 'gluon.html.INPUT'>"
p241
sS'EMBED'
p242
S"<class 'gluon.html.EMBED'>"
p243
sS'_'
S'<function _>'
p244
sS'myconf'
p245
S"{'forms': {'formstyle': 'bootstrap3_inline', 'se...'you@gmail.com', 'server': 'smtp.gmail.com:587'}}"
p246
sS'H2'
p247
S"<class 'gluon.html.H2'>"
p248
sS'H3'
p249
S"<class 'gluon.html.H3'>"
p250
sS'AppConfig'
p251
S'<function AppConfig>'
p252
sS'H1'
p253
S"<class 'gluon.html.H1'>"
p254
sS'H6'
p255
S"<class 'gluon.html.H6'>"
p256
sS'H4'
p257
S"<class 'gluon.html.H4'>"
p258
sS'H5'
p259
S"<class 'gluon.html.H5'>"
p260
sS'UL'
p261
S"<class 'gluon.html.UL'>"
p262
sS'IS_UPPER'
p263
S"<class 'gluon.validators.IS_UPPER'>"
p264
sS'xmlescape'
p265
S'<function xmlescape>'
p266
sS'IS_TIME'
p267
S"<class 'gluon.validators.IS_TIME'>"
p268
sS'OPTION'
p269
S"<class 'gluon.html.OPTION'>"
p270
sS'TITLE'
p271
S"<class 'gluon.html.TITLE'>"
p272
sS'CRYPT'
p273
S"<class 'gluon.validators.CRYPT'>"
p274
sS'IS_EMPTY_OR'
p275
S"<class 'gluon.validators.IS_EMPTY_OR'>"
p276
sS'MARKMIN'
p277
S"<class 'gluon.html.MARKMIN'>"
p278
sS'__name__'
p279
S"'__restricted__'"
p280
sS'STRONG'
p281
S"<class 'gluon.html.STRONG'>"
p282
sS'COL'
p283
S"<class 'gluon.html.COL'>"
p284
sS'mc1'
p285
S"'col-md-9'"
p286
sS'mc0'
p287
S"'col-md-12'"
p288
sS'service'
p289
S'<gluon.tools.Service object>'
p290
sS'SCRIPT'
p291
S"<class 'gluon.html.SCRIPT'>"
p292
sS'TABLE'
p293
S"<class 'gluon.html.TABLE'>"
p294
sS'IS_IPV4'
p295
S"<class 'gluon.validators.IS_IPV4'>"
p296
sS'IS_LENGTH'
p297
S"<class 'gluon.validators.IS_LENGTH'>"
p298
sS'IS_IPV6'
p299
S"<class 'gluon.validators.IS_IPV6'>"
p300
sS'XML'
p301
S"<class 'gluon.html.XML'>"
p302
sS'B'
S"<class 'gluon.html.B'>"
p303
sS'IMG'
p304
S"<class 'gluon.html.IMG'>"
p305
sS'SQLTABLE'
p306
S"<class 'gluon.sqlhtml.SQLTABLE'>"
p307
sS'IS_MATCH'
p308
S"<class 'gluon.validators.IS_MATCH'>"
p309
sS'IS_ALPHANUMERIC'
p310
S"<class 'gluon.validators.IS_ALPHANUMERIC'>"
p311
sS'SPAN'
p312
S"<class 'gluon.html.SPAN'>"
p313
sS'IS_JSON'
p314
S"<class 'gluon.validators.IS_JSON'>"
p315
sS'IS_IPADDRESS'
p316
S"<class 'gluon.validators.IS_IPADDRESS'>"
p317
sS'IS_SLUG'
p318
S"<class 'gluon.validators.IS_SLUG'>"
p319
sS'BEAUTIFY'
p320
S"<class 'gluon.html.BEAUTIFY'>"
p321
sS'META'
p322
S"<class 'gluon.html.META'>"
p323
sS'BUTTON'
p324
S"<class 'gluon.html.BUTTON'>"
p325
sS'IS_DATE'
p326
S"<class 'gluon.validators.IS_DATE'>"
p327
sS'IS_EMAIL'
p328
S"<class 'gluon.validators.IS_EMAIL'>"
p329
sS'middle_column'
p330
S"'col-md-12'"
p331
sS'IS_NOT_EMPTY'
p332
S"<class 'gluon.validators.IS_NOT_EMPTY'>"
p333
sS'IS_FLOAT_IN_RANGE'
p334
S"<class 'gluon.validators.IS_FLOAT_IN_RANGE'>"
p335
sS'TBODY'
p336
S"<class 'gluon.html.TBODY'>"
p337
sS'CAT'
p338
S"<class 'gluon.html.CAT'>"
p339
sS'Field'
p340
S"<class 'pydal.objects.Field'>"
p341
sS'mc2'
p342
S"'col-md-6'"
p343
sS'IS_LIST_OF_EMAILS'
p344
S"<class 'gluon.validators.IS_LIST_OF_EMAILS'>"
p345
sS'DIV'
p346
S"<class 'gluon.html.DIV'>"
p347
sS'LEGEND'
p348
S"<class 'gluon.html.LEGEND'>"
p349
sS'COLGROUP'
p350
S"<class 'gluon.html.COLGROUP'>"
p351
sS'DAL'
p352
S"<class 'pydal.base.DAL'>"
p353
sS'ASSIGNJS'
p354
S'<function ASSIGNJS>'
p355
sS'TR'
p356
S"<class 'gluon.html.TR'>"
p357
sS'LI'
p358
S"<class 'gluon.html.LI'>"
p359
sS'right_sidebar_enabled'
p360
g153
sS'TH'
p361
S"<class 'gluon.html.TH'>"
p362
sS'TD'
p363
S"<class 'gluon.html.TD'>"
p364
sS'PluginManager'
p365
S"<class 'gluon.tools.PluginManager'>"
p366
sS'IS_URL'
p367
S"<class 'gluon.validators.IS_URL'>"
p368
sS'A'
S"<class 'gluon.html.A'>"
p369
sS'HEAD'
p370
S"<class 'gluon.html.HEAD'>"
p371
sS'IS_DATETIME_IN_RANGE'
p372
S"<class 'gluon.validators.IS_DATETIME_IN_RANGE'>"
p373
sS'FORM'
p374
S"<class 'gluon.html.FORM'>"
p375
sS'I'
S"<class 'gluon.html.I'>"
p376
sS'IS_NOT_IN_DB'
p377
S"<class 'gluon.validators.IS_NOT_IN_DB'>"
p378
sg125
S"<Storage {'body': <cStringIO.StringO object at 0...da> at 0x088A77B0>, 'view': 'ventas/index.html'}>"
p379
sS'THEAD'
p380
S"<class 'gluon.html.THEAD'>"
p381
sS'ANY_OF'
p382
S"<class 'gluon.validators.ANY_OF'>"
p383
sS'IS_NULL_OR'
p384
S"<class 'gluon.validators.IS_EMPTY_OR'>"
p385
sg56
S"<Storage {'_vars': None, 'function': 'index', 'c...9601\\\\Documents\\\\web2py\\\\applications\\\\ascli\\\\'}>"
p386
sS'IS_EXPR'
p387
S"<class 'gluon.validators.IS_EXPR'>"
p388
sS'T'
S'<gluon.languages.translator object>'
p389
sS'IS_IN_SET'
p390
S"<class 'gluon.validators.IS_IN_SET'>"
p391
sS'IS_UPLOAD_FILENAME'
p392
S"<class 'gluon.validators.IS_UPLOAD_FILENAME'>"
p393
sS'TT'
p394
S"<class 'gluon.html.TT'>"
p395
sS'IS_DECIMAL_IN_RANGE'
p396
S"<class 'gluon.validators.IS_DECIMAL_IN_RANGE'>"
p397
sssS'traceback'
p398
S'Traceback (most recent call last):\n  File "C:\\Users\\1229601\\Documents\\web2py\\gluon\\restricted.py", line 227, in restricted\n    exec ccode in environment\n  File "C:\\Users\\1229601\\Documents\\web2py\\applications\\ascli\\views\\ventas/index.html", line 95, in <module>\n    <script type="text/javascript">\nNameError: name \'results2\' is not defined\n'
p399
s.