(dp1
S'Descripcion'
p2
(dp3
S'length'
p4
I1000
sS'unique'
p5
I00
sS'sortable'
p6
I4
sS'sql'
p7
S'CHAR(1000)'
p8
sS'notnull'
p9
I00
sS'type'
p10
S'string'
p11
ssS'Nombre'
p12
(dp13
g4
I30
sg5
I00
sg6
I3
sg7
S'CHAR(30)'
p14
sg9
I00
sg10
g11
ssS'IdCargo'
p15
(dp16
g4
I2
sg5
I00
sg6
I2
sg7
S'TEXT'
p17
sg9
I00
sg10
S'text'
p18
ssS'id'
p19
(dp20
g4
I512
sg5
I00
sg6
I1
sg7
S'INTEGER PRIMARY KEY AUTOINCREMENT'
p21
sg9
I00
sg10
g19
ss.